Microsoft (R) COFF/PE Dumper Version 11.00.60610.1
Copyright (C) Microsoft Corporation.  All rights reserved.


Dump of file cvextern.dll

File Type: DLL

  Section contains the following exports for cvextern.dll

    00000000 characteristics
    5589AA9B time date stamp Tue Jun 23 11:51:07 2015
        0.00 version
           1 ordinal base
        3285 number of functions
        3285 number of names

    ordinal hint RVA      name

          1    0 00045650 ??0?$RotationWarperBase@UCompressedRectilinearPortraitProjector@detail@cv@@@detail@cv@@QAE@ABV012@@Z
          2    1 000456C0 ??0?$RotationWarperBase@UCompressedRectilinearPortraitProjector@detail@cv@@@detail@cv@@QAE@XZ
          3    2 00045720 ??0?$RotationWarperBase@UCompressedRectilinearProjector@detail@cv@@@detail@cv@@QAE@ABV012@@Z
          4    3 00045790 ??0?$RotationWarperBase@UCompressedRectilinearProjector@detail@cv@@@detail@cv@@QAE@XZ
          5    4 000457F0 ??0?$RotationWarperBase@UCylindricalPortraitProjector@detail@cv@@@detail@cv@@QAE@ABV012@@Z
          6    5 00045860 ??0?$RotationWarperBase@UCylindricalPortraitProjector@detail@cv@@@detail@cv@@QAE@XZ
          7    6 000458C0 ??0?$RotationWarperBase@UCylindricalProjector@detail@cv@@@detail@cv@@QAE@ABV012@@Z
          8    7 00045930 ??0?$RotationWarperBase@UCylindricalProjector@detail@cv@@@detail@cv@@QAE@XZ
          9    8 00045990 ??0?$RotationWarperBase@UFisheyeProjector@detail@cv@@@detail@cv@@QAE@ABV012@@Z
         10    9 00045A00 ??0?$RotationWarperBase@UFisheyeProjector@detail@cv@@@detail@cv@@QAE@XZ
         11    A 00045A60 ??0?$RotationWarperBase@UMercatorProjector@detail@cv@@@detail@cv@@QAE@ABV012@@Z
         12    B 00045AD0 ??0?$RotationWarperBase@UMercatorProjector@detail@cv@@@detail@cv@@QAE@XZ
         13    C 00045B30 ??0?$RotationWarperBase@UPaniniPortraitProjector@detail@cv@@@detail@cv@@QAE@ABV012@@Z
         14    D 00045BA0 ??0?$RotationWarperBase@UPaniniPortraitProjector@detail@cv@@@detail@cv@@QAE@XZ
         15    E 00045C00 ??0?$RotationWarperBase@UPaniniProjector@detail@cv@@@detail@cv@@QAE@ABV012@@Z
         16    F 00045C70 ??0?$RotationWarperBase@UPaniniProjector@detail@cv@@@detail@cv@@QAE@XZ
         17   10 00045CD0 ??0?$RotationWarperBase@UPlanePortraitProjector@detail@cv@@@detail@cv@@QAE@ABV012@@Z
         18   11 00045D40 ??0?$RotationWarperBase@UPlanePortraitProjector@detail@cv@@@detail@cv@@QAE@XZ
         19   12 00045DA0 ??0?$RotationWarperBase@UPlaneProjector@detail@cv@@@detail@cv@@QAE@ABV012@@Z
         20   13 00045E10 ??0?$RotationWarperBase@UPlaneProjector@detail@cv@@@detail@cv@@QAE@XZ
         21   14 00045E70 ??0?$RotationWarperBase@USphericalPortraitProjector@detail@cv@@@detail@cv@@QAE@ABV012@@Z
         22   15 00045EE0 ??0?$RotationWarperBase@USphericalPortraitProjector@detail@cv@@@detail@cv@@QAE@XZ
         23   16 00045F40 ??0?$RotationWarperBase@USphericalProjector@detail@cv@@@detail@cv@@QAE@ABV012@@Z
         24   17 00045FB0 ??0?$RotationWarperBase@USphericalProjector@detail@cv@@@detail@cv@@QAE@XZ
         25   18 00046010 ??0?$RotationWarperBase@UStereographicProjector@detail@cv@@@detail@cv@@QAE@ABV012@@Z
         26   19 00046080 ??0?$RotationWarperBase@UStereographicProjector@detail@cv@@@detail@cv@@QAE@XZ
         27   1A 000460E0 ??0?$RotationWarperBase@UTransverseMercatorProjector@detail@cv@@@detail@cv@@QAE@ABV012@@Z
         28   1B 00046150 ??0?$RotationWarperBase@UTransverseMercatorProjector@detail@cv@@@detail@cv@@QAE@XZ
         29   1C 000194F0 ??0AKAZE@cv@@QAE@ABV01@@Z
         30   1D 000195B0 ??0AKAZE@cv@@QAE@XZ
         31   1E 0002EE00 ??0ANN_MLP@ml@cv@@QAE@ABV012@@Z
         32   1F 0002EE60 ??0ANN_MLP@ml@cv@@QAE@XZ
         33   20 00040290 ??0AffineTransformer@cv@@QAE@ABV01@@Z
         34   21 000402F0 ??0AffineTransformer@cv@@QAE@XZ
         35   22 00019670 ??0AgastFeatureDetector@cv@@QAE@ABV01@@Z
         36   23 00019730 ??0AgastFeatureDetector@cv@@QAE@XZ
         37   24 0000BC30 ??0Algorithm@cv@@QAE@ABV01@@Z
         38   25 00034E10 ??0AlignExposures@cv@@QAE@ABV01@@Z
         39   26 00034E70 ??0AlignExposures@cv@@QAE@XZ
         40   27 00034ED0 ??0AlignMTB@cv@@QAE@ABV01@@Z
         41   28 00034F30 ??0AlignMTB@cv@@QAE@XZ
         42   29 0001EDE0 ??0Allocator@GpuMat@cuda@cv@@QAE@ABV0123@@Z
         43   2A 0001EDF0 ??0Allocator@GpuMat@cuda@cv@@QAE@XZ
         44   2B 0000BC40 ??0AutoLock@cv@@QAE@AAVMutex@1@@Z
         45   2C 000197F0 ??0BFMatcher@cv@@QAE@ABV01@@Z
         46   2D 00019890 ??0BOWImgDescriptorExtractor@cv@@QAE@ABV01@@Z
         47   2E 00019940 ??0BOWKMeansTrainer@cv@@QAE@ABV01@@Z
         48   2F 000199E0 ??0BOWTrainer@cv@@QAE@ABV01@@Z
         49   30 00019A50 ??0BRISK@cv@@QAE@ABV01@@Z
         50   31 00019B10 ??0BRISK@cv@@QAE@XZ
         51   32 0002CD90 ??0BackgroundSubtractor@cv@@QAE@ABV01@@Z
         52   33 0002CDF0 ??0BackgroundSubtractor@cv@@QAE@XZ
         53   34 00043E10 ??0BackgroundSubtractorGMG@bgsegm@cv@@QAE@ABV012@@Z
         54   35 00043E70 ??0BackgroundSubtractorGMG@bgsegm@cv@@QAE@XZ
         55   36 0002CE50 ??0BackgroundSubtractorKNN@cv@@QAE@ABV01@@Z
         56   37 0002CEB0 ??0BackgroundSubtractorKNN@cv@@QAE@XZ
         57   38 0002CF20 ??0BackgroundSubtractorMOG2@cv@@QAE@ABV01@@Z
         58   39 0002CF80 ??0BackgroundSubtractorMOG2@cv@@QAE@XZ
         59   3A 00043EE0 ??0BackgroundSubtractorMOG@bgsegm@cv@@QAE@ABV012@@Z
         60   3B 00043F40 ??0BackgroundSubtractorMOG@bgsegm@cv@@QAE@XZ
         61   3C 00014890 ??0BaseCascadeClassifier@cv@@QAE@ABV01@@Z
         62   3D 000148F0 ??0BaseCascadeClassifier@cv@@QAE@XZ
         63   3E 00041BB0 ??0BasicFaceRecognizer@face@cv@@QAE@ABV012@@Z
         64   3F 00041C30 ??0BasicFaceRecognizer@face@cv@@QAE@XZ
         65   40 000467A0 ??0BestOf2NearestMatcher@detail@cv@@QAE@ABV012@@Z
         66   41 00046830 ??0BestOf2NearestRangeMatcher@detail@cv@@QAE@ABV012@@Z
         67   42 000468D0 ??0Blender@detail@cv@@QAE@ABV012@@Z
         68   43 00046960 ??0Blender@detail@cv@@QAE@XZ
         69   44 00046A80 ??0BlocksGainCompensator@detail@cv@@QAE@ABV012@@Z
         70   45 00046B00 ??0BlocksGainCompensator@detail@cv@@QAE@HH@Z
         71   46 0002EED0 ??0Boost@ml@cv@@QAE@ABV012@@Z
         72   47 0002EF40 ??0Boost@ml@cv@@QAE@XZ
         73   48 00042A60 ??0BriefDescriptorExtractor@xfeatures2d@cv@@QAE@ABV012@@Z
         74   49 00042B20 ??0BriefDescriptorExtractor@xfeatures2d@cv@@QAE@XZ
         75   4A 00035FB0 ??0BroxOpticalFlow@superres@cv@@QAE@ABV012@@Z
         76   4B 00036050 ??0BroxOpticalFlow@superres@cv@@QAE@XZ
         77   4C 00046B80 ??0BundleAdjusterBase@detail@cv@@IAE@HH@Z
         78   4D 00046CF0 ??0BundleAdjusterBase@detail@cv@@QAE@ABV012@@Z
         79   4E 00046DC0 ??0BundleAdjusterRay@detail@cv@@QAE@ABV012@@Z
         80   4F 00046E50 ??0BundleAdjusterRay@detail@cv@@QAE@XZ
         81   50 00046ED0 ??0BundleAdjusterReproj@detail@cv@@QAE@ABV012@@Z
         82   51 00046F60 ??0BundleAdjusterReproj@detail@cv@@QAE@XZ
         83   52 00014950 ??0CLAHE@cv@@QAE@ABV01@@Z
         84   53 000149B0 ??0CLAHE@cv@@QAE@XZ
         85   54 00034FA0 ??0CalibrateCRF@cv@@QAE@ABV01@@Z
         86   55 00035000 ??0CalibrateCRF@cv@@QAE@XZ
         87   56 00035060 ??0CalibrateDebevec@cv@@QAE@ABV01@@Z
         88   57 000350C0 ??0CalibrateDebevec@cv@@QAE@XZ
         89   58 00035130 ??0CalibrateRobertson@cv@@QAE@ABV01@@Z
         90   59 00035190 ??0CalibrateRobertson@cv@@QAE@XZ
         91   5A 0001DDB0 ??0Callback@ERFilter@text@cv@@QAE@ABV0123@@Z
         92   5B 0001DDC0 ??0Callback@ERFilter@text@cv@@QAE@XZ
         93   5C 0001F3C0 ??0CascadeClassifier@cv@@QAE@ABV01@@Z
         94   5D 00040360 ??0ChiHistogramCostExtractor@cv@@QAE@ABV01@@Z
         95   5E 000403C0 ??0ChiHistogramCostExtractor@cv@@QAE@XZ
         96   5F 00037930 ??0ColorAverageInpainter@videostab@cv@@QAE@ABV012@@Z
         97   60 000379C0 ??0ColorAverageInpainter@videostab@cv@@QAE@XZ
         98   61 00037A50 ??0ColorInpainter@videostab@cv@@QAE@ABV012@@Z
         99   62 00037AF0 ??0ColorInpainter@videostab@cv@@QAE@HN@Z
        100   63 00046FE0 ??0CompressedRectilinearPortraitWarper@detail@cv@@QAE@ABV012@@Z
        101   64 00047060 ??0CompressedRectilinearPortraitWarper@detail@cv@@QAE@MMM@Z
        102   65 000470F0 ??0CompressedRectilinearWarper@detail@cv@@QAE@ABV012@@Z
        103   66 00047170 ??0CompressedRectilinearWarper@detail@cv@@QAE@MMM@Z
        104   67 0000BC60 ??0ConjGradSolver@cv@@QAE@ABV01@@Z
        105   68 0000BCC0 ??0ConjGradSolver@cv@@QAE@XZ
        106   69 00037B90 ??0ConsistentMosaicInpainter@videostab@cv@@QAE@ABV012@@Z
        107   6A 000339B0 ??0CvLevMarq@@QAE@ABV0@@Z
        108   6B 0000BDE0 ??0CvMatND@@QAE@XZ
        109   6C 00047200 ??0CylindricalPortraitWarper@detail@cv@@QAE@ABV012@@Z
        110   6D 00047280 ??0CylindricalPortraitWarper@detail@cv@@QAE@M@Z
        111   6E 000472F0 ??0CylindricalWarper@detail@cv@@QAE@ABV012@@Z
        112   6F 00047370 ??0CylindricalWarper@detail@cv@@QAE@M@Z
        113   70 000473E0 ??0CylindricalWarperGpu@detail@cv@@QAE@ABV012@@Z
        114   71 00047650 ??0CylindricalWarperGpu@detail@cv@@QAE@M@Z
        115   72 00042BE0 ??0DAISY@xfeatures2d@cv@@QAE@ABV012@@Z
        116   73 00042CA0 ??0DAISY@xfeatures2d@cv@@QAE@XZ
        117   74 0000BDF0 ??0DMatch@cv@@QAE@HHHM@Z
        118   75 0000BE20 ??0DMatch@cv@@QAE@HHM@Z
        119   76 0000BE50 ??0DMatch@cv@@QAE@XZ
        120   77 0002EFB0 ??0DTrees@ml@cv@@QAE@ABV012@@Z
        121   78 0002F010 ??0DTrees@ml@cv@@QAE@XZ
        122   79 00013F50 ??0DataLogger@emgu@@QAE@HH@Z
        123   7A 00037C10 ??0DeblurerBase@videostab@cv@@QAE@ABV012@@Z
        124   7B 00037C40 ??0DeblurerBase@videostab@cv@@QAE@XZ
        125   7C 0002CFF0 ??0DenseOpticalFlow@cv@@QAE@ABV01@@Z
        126   7D 0002D050 ??0DenseOpticalFlow@cv@@QAE@XZ
        127   7E 000360F0 ??0DenseOpticalFlowExt@superres@cv@@QAE@ABV012@@Z
        128   7F 00036150 ??0DenseOpticalFlowExt@superres@cv@@QAE@XZ
        129   80 00019BD0 ??0DescriptorMatcher@cv@@QAE@ABV01@@Z
        130   81 00019C50 ??0DescriptorMatcher@cv@@QAE@XZ
        131   82 00014A10 ??0DetectionBasedTracker@cv@@QAE@ABV01@@Z
        132   83 0001EE00 ??0DeviceInfo@cuda@cv@@QAE@H@Z
        133   84 0001EEB0 ??0DeviceInfo@cuda@cv@@QAE@XZ
        134   85 00047850 ??0DisjointSets@detail@cv@@QAE@ABV012@@Z
        135   86 000478D0 ??0DisjointSets@detail@cv@@QAE@H@Z
        136   87 0000BE70 ??0DownhillSolver@cv@@QAE@ABV01@@Z
        137   88 0000BED0 ??0DownhillSolver@cv@@QAE@XZ
        138   89 00047970 ??0DpSeamFinder@detail@cv@@QAE@ABV012@@Z
        139   8A 0002D0B0 ??0DualTVL1OpticalFlow@cv@@QAE@ABV01@@Z
        140   8B 0002D110 ??0DualTVL1OpticalFlow@cv@@QAE@XZ
        141   8C 000361B0 ??0DualTVL1OpticalFlow@superres@cv@@QAE@ABV012@@Z
        142   8D 00036250 ??0DualTVL1OpticalFlow@superres@cv@@QAE@XZ
        143   8E 0002F080 ??0EM@ml@cv@@QAE@ABV012@@Z
        144   8F 0002F0E0 ??0EM@ml@cv@@QAE@XZ
        145   90 00040430 ??0EMDHistogramCostExtractor@cv@@QAE@ABV01@@Z
        146   91 00040490 ??0EMDHistogramCostExtractor@cv@@QAE@XZ
        147   92 00040500 ??0EMDL1HistogramCostExtractor@cv@@QAE@ABV01@@Z
        148   93 00040560 ??0EMDL1HistogramCostExtractor@cv@@QAE@XZ
        149   94 0001DDD0 ??0ERFilter@text@cv@@QAE@ABV012@@Z
        150   95 0001DE30 ??0ERFilter@text@cv@@QAE@XZ
        151   96 0001DE90 ??0ERStat@text@cv@@QAE@ABU012@@Z
        152   97 00047B50 ??0Estimator@detail@cv@@QAE@ABV012@@Z
        153   98 00047B60 ??0Estimator@detail@cv@@QAE@XZ
        154   99 0001F3C0 ??0Event@cuda@cv@@QAE@ABV012@@Z
        155   9A 0000BF40 ??0Exception@cv@@QAE@ABV01@@Z
        156   9B 00047B70 ??0ExposureCompensator@detail@cv@@QAE@ABV012@@Z
        157   9C 00047B80 ??0ExposureCompensator@detail@cv@@QAE@XZ
        158   9D 00042D60 ??0FREAK@xfeatures2d@cv@@QAE@ABV012@@Z
        159   9E 00042E20 ??0FREAK@xfeatures2d@cv@@QAE@XZ
        160   9F 00041CC0 ??0FaceRecognizer@face@cv@@QAE@ABV012@@Z
        161   A0 00041D30 ??0FaceRecognizer@face@cv@@QAE@XZ
        162   A1 000362F0 ??0FarnebackOpticalFlow@superres@cv@@QAE@ABV012@@Z
        163   A2 00036390 ??0FarnebackOpticalFlow@superres@cv@@QAE@XZ
        164   A3 00019CE0 ??0FastFeatureDetector@cv@@QAE@ABV01@@Z
        165   A4 00019DA0 ??0FastFeatureDetector@cv@@QAE@XZ
        166   A5 00037C70 ??0FastMarchingMethod@videostab@cv@@QAE@ABV012@@Z
        167   A6 00037D20 ??0FastMarchingMethod@videostab@cv@@QAE@XZ
        168   A7 00047B90 ??0FeatherBlender@detail@cv@@QAE@ABV012@@Z
        169   A8 00047C50 ??0FeatherBlender@detail@cv@@QAE@M@Z
        170   A9 00019E60 ??0Feature2D@cv@@QAE@ABV01@@Z
        171   AA 00019EF0 ??0Feature2D@cv@@QAE@XZ
        172   AB 00047DA0 ??0FeaturesFinder@detail@cv@@QAE@ABV012@@Z
        173   AC 00047DB0 ??0FeaturesFinder@detail@cv@@QAE@XZ
        174   AD 00047DC0 ??0FeaturesMatcher@detail@cv@@IAE@_N@Z
        175   AE 00047DE0 ??0FeaturesMatcher@detail@cv@@QAE@ABV012@@Z
        176   AF 0000F220 ??0FileNode@cv@@QAE@ABV01@@Z
        177   B0 002DAE20 ??0FileNode@cv@@QAE@PBUCvFileStorage@@PBUCvFileNode@@@Z
        178   B1 006365A0 ??0FileNode@cv@@QAE@XZ
        179   B2 0000C030 ??0FileStorage@cv@@QAE@ABV01@@Z
        180   B3 00047E00 ??0FisheyeWarper@detail@cv@@QAE@ABV012@@Z
        181   B4 00047E80 ??0FisheyeWarper@detail@cv@@QAE@M@Z
        182   B5 00019F90 ??0FlannBasedMatcher@cv@@QAE@ABV01@@Z
        183   B6 0000C0E0 ??0Formatted@cv@@QAE@ABV01@@Z
        184   B7 0000C0F0 ??0Formatted@cv@@QAE@XZ
        185   B8 0000C100 ??0Formatter@cv@@QAE@ABV01@@Z
        186   B9 0000C110 ??0Formatter@cv@@QAE@XZ
        187   BA 00036430 ??0FrameSource@superres@cv@@QAE@ABV012@@Z
        188   BB 00036440 ??0FrameSource@superres@cv@@QAE@XZ
        189   BC 0000C120 ??0Function@MinProblemSolver@cv@@QAE@ABV012@@Z
        190   BD 0000C130 ??0Function@MinProblemSolver@cv@@QAE@XZ
        191   BE 0001A090 ??0GFTTDetector@cv@@QAE@ABV01@@Z
        192   BF 0001A150 ??0GFTTDetector@cv@@QAE@XZ
        193   C0 00047EF0 ??0GainCompensator@detail@cv@@QAE@ABV012@@Z
        194   C1 00047F60 ??0GainCompensator@detail@cv@@QAE@XZ
        195   C2 00037DF0 ??0GaussianMotionFilter@videostab@cv@@QAE@ABV012@@Z
        196   C3 00037E70 ??0GaussianMotionFilter@videostab@cv@@QAE@HM@Z
        197   C4 00014B00 ??0GeneralizedHough@cv@@QAE@ABV01@@Z
        198   C5 00014B60 ??0GeneralizedHough@cv@@QAE@XZ
        199   C6 00014BC0 ??0GeneralizedHoughBallard@cv@@QAE@ABV01@@Z
        200   C7 00014C20 ??0GeneralizedHoughBallard@cv@@QAE@XZ
        201   C8 00014C90 ??0GeneralizedHoughGuil@cv@@QAE@ABV01@@Z
        202   C9 00014CF0 ??0GeneralizedHoughGuil@cv@@QAE@XZ
        203   CA 0001EEC0 ??0GpuMat@cuda@cv@@QAE@ABV012@@Z
        204   CB 0001EF10 ??0GpuMat@cuda@cv@@QAE@ABV_InputArray@2@PAVAllocator@012@@Z
        205   CC 0001EF70 ??0GpuMat@cuda@cv@@QAE@HHHPAVAllocator@012@@Z
        206   CD 0001EFE0 ??0GpuMat@cuda@cv@@QAE@HHHV?$Scalar_@N@2@PAVAllocator@012@@Z
        207   CE 0001F0B0 ??0GpuMat@cuda@cv@@QAE@PAVAllocator@012@@Z
        208   CF 0001F100 ??0GpuMat@cuda@cv@@QAE@V?$Size_@H@2@HPAVAllocator@012@@Z
        209   D0 0001F170 ??0GpuMat@cuda@cv@@QAE@V?$Size_@H@2@HV?$Scalar_@N@2@PAVAllocator@012@@Z
        210   D1 00047FE0 ??0Graph@detail@cv@@QAE@ABV012@@Z
        211   D2 00048030 ??0Graph@detail@cv@@QAE@H@Z
        212   D3 000480A0 ??0GraphCutSeamFinder@detail@cv@@QAE@ABV012@@Z
        213   D4 00048120 ??0GraphEdge@detail@cv@@QAE@HHM@Z
        214   D5 00014D60 ??0HOGDescriptor@cv@@QAE@ABU01@@Z
        215   D6 00014E70 ??0HOGDescriptor@cv@@QAE@ABVString@1@@Z
        216   D7 00014FA0 ??0HOGDescriptor@cv@@QAE@V?$Size_@H@1@000HHNHN_NH1@Z
        217   D8 000150E0 ??0HOGDescriptor@cv@@QAE@XZ
        218   D9 000405D0 ??0HausdorffDistanceExtractor@cv@@QAE@ABV01@@Z
        219   DA 00040630 ??0HausdorffDistanceExtractor@cv@@QAE@XZ
        220   DB 0000C140 ??0Hdr@SparseMat@cv@@QAE@ABU012@@Z
        221   DC 000406A0 ??0HistogramCostExtractor@cv@@QAE@ABV01@@Z
        222   DD 00040700 ??0HistogramCostExtractor@cv@@QAE@XZ
        223   DE 00048140 ??0HomographyBasedEstimator@detail@cv@@QAE@ABV012@@Z
        224   DF 000481A0 ??0HomographyBasedEstimator@detail@cv@@QAE@_N@Z
        225   E0 0001EEC0 ??0HostMem@cuda@cv@@QAE@ABV012@@Z
        226   E1 0001F240 ??0HostMem@cuda@cv@@QAE@ABV_InputArray@2@W4AllocType@012@@Z
        227   E2 0001EF70 ??0HostMem@cuda@cv@@QAE@HHHW4AllocType@012@@Z
        228   E3 0001F100 ??0HostMem@cuda@cv@@QAE@V?$Size_@H@2@HW4AllocType@012@@Z
        229   E4 0001F0B0 ??0HostMem@cuda@cv@@QAE@W4AllocType@012@@Z
        230   E5 00037F00 ??0IDenseOptFlowEstimator@videostab@cv@@QAE@ABV012@@Z
        231   E6 00037F10 ??0IDenseOptFlowEstimator@videostab@cv@@QAE@XZ
        232   E7 00037F20 ??0IFrameSource@videostab@cv@@QAE@ABV012@@Z
        233   E8 00037F30 ??0IFrameSource@videostab@cv@@QAE@XZ
        234   E9 00037F40 ??0ILog@videostab@cv@@QAE@ABV012@@Z
        235   EA 00037F50 ??0ILog@videostab@cv@@QAE@XZ
        236   EB 00037F60 ??0IMotionStabilizer@videostab@cv@@QAE@ABV012@@Z
        237   EC 00037F70 ??0IMotionStabilizer@videostab@cv@@QAE@XZ
        238   ED 00037F80 ??0IOutlierRejector@videostab@cv@@QAE@ABV012@@Z
        239   EE 00037F90 ??0IOutlierRejector@videostab@cv@@QAE@XZ
        240   EF 00037FA0 ??0ISparseOptFlowEstimator@videostab@cv@@QAE@ABV012@@Z
        241   F0 00037FB0 ??0ISparseOptFlowEstimator@videostab@cv@@QAE@XZ
        242   F1 00048200 ??0ImageFeatures@detail@cv@@QAE@ABU012@@Z
        243   F2 00048280 ??0ImageFeatures@detail@cv@@QAE@XZ
        244   F3 00037FC0 ??0ImageMotionEstimatorBase@videostab@cv@@IAE@W4MotionModel@12@@Z
        245   F4 00037FE0 ??0ImageMotionEstimatorBase@videostab@cv@@QAE@ABV012@@Z
        246   F5 0001A210 ??0Index@flann@cv@@QAE@ABV012@@Z
        247   F6 00038000 ??0InpainterBase@videostab@cv@@QAE@ABV012@@Z
        248   F7 00038040 ??0InpainterBase@videostab@cv@@QAE@XZ
        249   F8 00038080 ??0InpaintingPipeline@videostab@cv@@QAE@ABV012@@Z
        250   F9 00038110 ??0InpaintingPipeline@videostab@cv@@QAE@XZ
        251   FA 0001A240 ??0KAZE@cv@@QAE@ABV01@@Z
        252   FB 0001A300 ??0KAZE@cv@@QAE@XZ
        253   FC 0002F150 ??0KNearest@ml@cv@@QAE@ABV012@@Z
        254   FD 0002F1B0 ??0KNearest@ml@cv@@QAE@XZ
        255   FE 0002D180 ??0KalmanFilter@cv@@QAE@ABV01@@Z
        256   FF 0002F220 ??0Kernel@SVM@ml@cv@@QAE@ABV0123@@Z
        257  100 0002F280 ??0Kernel@SVM@ml@cv@@QAE@XZ
        258  101 00702E30 ??0KeyPoint@cv@@QAE@ABV01@@Z
        259  102 0000C1E0 ??0KeyPoint@cv@@QAE@MMMMMHH@Z
        260  103 0000C1E0 ??0KeyPoint@cv@@QAE@V?$Point_@M@1@MMMHH@Z
        261  104 0000C230 ??0KeyPoint@cv@@QAE@XZ
        262  105 0000BDE0 ??0KeyPointsFilter@cv@@QAE@XZ
        263  106 000381A0 ??0KeypointBasedMotionEstimator@videostab@cv@@QAE@ABV012@@Z
        264  107 00042EE0 ??0LATCH@xfeatures2d@cv@@QAE@ABV012@@Z
        265  108 00042FA0 ??0LATCH@xfeatures2d@cv@@QAE@XZ
        266  109 00041DB0 ??0LBPHFaceRecognizer@face@cv@@QAE@ABV012@@Z
        267  10A 00041E30 ??0LBPHFaceRecognizer@face@cv@@QAE@XZ
        268  10B 0000C270 ??0LDA@cv@@QAE@ABV01@@Z
        269  10C 00021E40 ??0LSVMDetector@lsvm@cv@@QAE@ABV012@@Z
        270  10D 00021E50 ??0LSVMDetector@lsvm@cv@@QAE@XZ
        271  10E 00043060 ??0LUCID@xfeatures2d@cv@@QAE@ABV012@@Z
        272  10F 00043120 ??0LUCID@xfeatures2d@cv@@QAE@XZ
        273  110 00015220 ??0LineSegmentDetector@cv@@QAE@ABV01@@Z
        274  111 00015280 ??0LineSegmentDetector@cv@@QAE@XZ
        275  112 000382F0 ??0LogToStdout@videostab@cv@@QAE@ABV012@@Z
        276  113 00038350 ??0LogToStdout@videostab@cv@@QAE@XZ
        277  114 0002F2E0 ??0LogisticRegression@ml@cv@@QAE@ABV012@@Z
        278  115 0002F340 ??0LogisticRegression@ml@cv@@QAE@XZ
        279  116 000383B0 ??0LpMotionStabilizer@videostab@cv@@QAE@ABV012@@Z
        280  117 0001A3C0 ??0MSER@cv@@QAE@ABV01@@Z
        281  118 0001A480 ??0MSER@cv@@QAE@XZ
        282  119 000152E0 ??0MaskGenerator@BaseCascadeClassifier@cv@@QAE@ABV012@@Z
        283  11A 000152F0 ??0MaskGenerator@BaseCascadeClassifier@cv@@QAE@XZ
        284  11B 0000C2F0 ??0Mat@cv@@QAE@ABV01@@Z
        285  11C 0001F320 ??0Mat@cv@@QAE@ABVGpuMat@cuda@1@@Z
        286  11D 0000C3A0 ??0Mat@cv@@QAE@HHH@Z
        287  11E 0000C460 ??0Mat@cv@@QAE@HHHABV?$Scalar_@N@1@@Z
        288  11F 0000C530 ??0Mat@cv@@QAE@HHHPAXI@Z
        289  120 0000C6C0 ??0Mat@cv@@QAE@HPBHH@Z
        290  121 0000C740 ??0Mat@cv@@QAE@HPBHHABV?$Scalar_@N@1@@Z
        291  122 0000C7D0 ??0Mat@cv@@QAE@V?$Size_@H@1@H@Z
        292  123 0000C890 ??0Mat@cv@@QAE@V?$Size_@H@1@HABV?$Scalar_@N@1@@Z
        293  124 0000C960 ??0Mat@cv@@QAE@V?$Size_@H@1@HPAXI@Z
        294  125 0000CAF0 ??0Mat@cv@@QAE@XZ
        295  126 0000CB60 ??0MatAllocator@cv@@QAE@ABV01@@Z
        296  127 0000CB70 ??0MatAllocator@cv@@QAE@XZ
        297  128 0000F100 ??0MatConstIterator@cv@@QAE@ABV01@@Z
        298  129 0000CB80 ??0MatConstIterator@cv@@QAE@PBVMat@1@@Z
        299  12A 0000CC10 ??0MatConstIterator@cv@@QAE@PBVMat@1@HH@Z
        300  12B 0000CD50 ??0MatConstIterator@cv@@QAE@PBVMat@1@V?$Point_@H@1@@Z
        301  12C 0000CE90 ??0MatConstIterator@cv@@QAE@XZ
        302  12D 0000CEC0 ??0MatExpr@cv@@QAE@ABV01@@Z
        303  12E 0000CFB0 ??0MatExpr@cv@@QAE@PBVMatOp@1@HABVMat@1@11NNABV?$Scalar_@N@1@@Z
        304  12F 0000D080 ??0MatExpr@cv@@QAE@XZ
        305  130 0000D110 ??0MatOp@cv@@QAE@ABV01@@Z
        306  131 0000D120 ??0MatSize@cv@@QAE@PAH@Z
        307  132 0000D130 ??0MatStep@cv@@QAE@I@Z
        308  133 0000D150 ??0MatStep@cv@@QAE@XZ
        309  134 00048340 ??0MercatorWarper@detail@cv@@QAE@ABV012@@Z
        310  135 000483C0 ??0MercatorWarper@detail@cv@@QAE@M@Z
        311  136 00035200 ??0MergeDebevec@cv@@QAE@ABV01@@Z
        312  137 00035260 ??0MergeDebevec@cv@@QAE@XZ
        313  138 000352D0 ??0MergeExposures@cv@@QAE@ABV01@@Z
        314  139 00035330 ??0MergeExposures@cv@@QAE@XZ
        315  13A 00035390 ??0MergeMertens@cv@@QAE@ABV01@@Z
        316  13B 000353F0 ??0MergeMertens@cv@@QAE@XZ
        317  13C 00035460 ??0MergeRobertson@cv@@QAE@ABV01@@Z
        318  13D 000354C0 ??0MergeRobertson@cv@@QAE@XZ
        319  13E 0000D170 ??0MinProblemSolver@cv@@QAE@ABV01@@Z
        320  13F 0000D1D0 ??0MinProblemSolver@cv@@QAE@XZ
        321  140 000384C0 ??0MoreAccurateMotionWobbleSuppressor@videostab@cv@@QAE@ABV012@@Z
        322  141 00038540 ??0MoreAccurateMotionWobbleSuppressor@videostab@cv@@QAE@XZ
        323  142 000385F0 ??0MoreAccurateMotionWobbleSuppressorBase@videostab@cv@@IAE@XZ
        324  143 00038650 ??0MoreAccurateMotionWobbleSuppressorBase@videostab@cv@@QAE@ABV012@@Z
        325  144 000386F0 ??0MotionEstimatorBase@videostab@cv@@IAE@W4MotionModel@12@@Z
        326  145 00038710 ??0MotionEstimatorBase@videostab@cv@@QAE@ABV012@@Z
        327  146 00038730 ??0MotionEstimatorL1@videostab@cv@@QAE@ABV012@@Z
        328  147 00038810 ??0MotionEstimatorRansacL2@videostab@cv@@QAE@ABV012@@Z
        329  148 00038880 ??0MotionFilterBase@videostab@cv@@QAE@ABV012@@Z
        330  149 000388E0 ??0MotionFilterBase@videostab@cv@@QAE@XZ
        331  14A 00038940 ??0MotionInpainter@videostab@cv@@QAE@ABV012@@Z
        332  14B 00038B20 ??0MotionStabilizationPipeline@videostab@cv@@QAE@ABV012@@Z
        333  14C 00038B90 ??0MotionStabilizationPipeline@videostab@cv@@QAE@XZ
        334  14D 00048430 ??0MultiBandBlender@detail@cv@@QAE@ABV012@@Z
        335  14E 00048550 ??0NoExposureCompensator@detail@cv@@QAE@ABV012@@Z
        336  14F 000485B0 ??0NoExposureCompensator@detail@cv@@QAE@XZ
        337  150 00048610 ??0NoSeamFinder@detail@cv@@QAE@ABV012@@Z
        338  151 00048670 ??0NoSeamFinder@detail@cv@@QAE@XZ
        339  152 00040760 ??0NormHistogramCostExtractor@cv@@QAE@ABV01@@Z
        340  153 000407C0 ??0NormHistogramCostExtractor@cv@@QAE@XZ
        341  154 0002F3B0 ??0NormalBayesClassifier@ml@cv@@QAE@ABV012@@Z
        342  155 0002F410 ??0NormalBayesClassifier@ml@cv@@QAE@XZ
        343  156 00038C00 ??0NullDeblurer@videostab@cv@@QAE@ABV012@@Z
        344  157 00038C70 ??0NullDeblurer@videostab@cv@@QAE@XZ
        345  158 00038CE0 ??0NullFrameSource@videostab@cv@@QAE@ABV012@@Z
        346  159 00038D40 ??0NullFrameSource@videostab@cv@@QAE@XZ
        347  15A 00038DA0 ??0NullInpainter@videostab@cv@@QAE@ABV012@@Z
        348  15B 00038E20 ??0NullInpainter@videostab@cv@@QAE@XZ
        349  15C 00038EA0 ??0NullLog@videostab@cv@@QAE@ABV012@@Z
        350  15D 00038F00 ??0NullLog@videostab@cv@@QAE@XZ
        351  15E 00038F60 ??0NullOutlierRejector@videostab@cv@@QAE@ABV012@@Z
        352  15F 00038FC0 ??0NullOutlierRejector@videostab@cv@@QAE@XZ
        353  160 00039020 ??0NullWobbleSuppressor@videostab@cv@@QAE@ABV012@@Z
        354  161 000390C0 ??0NullWobbleSuppressor@videostab@cv@@QAE@XZ
        355  162 0001A540 ??0ORB@cv@@QAE@ABV01@@Z
        356  163 0001A600 ??0ORB@cv@@QAE@XZ
        357  164 00021E70 ??0ObjectDetection@LSVMDetector@lsvm@cv@@QAE@ABU0123@@Z
        358  165 00039120 ??0OnePassStabilizer@videostab@cv@@QAE@ABV012@@Z
        359  166 000486D0 ??0OrbFeaturesFinder@detail@cv@@QAE@ABV012@@Z
        360  167 0000D230 ??0PCA@cv@@QAE@ABV01@@Z
        361  168 00048760 ??0PairwiseSeamFinder@detail@cv@@QAE@ABV012@@Z
        362  169 00048800 ??0PairwiseSeamFinder@detail@cv@@QAE@XZ
        363  16A 000488C0 ??0PaniniPortraitWarper@detail@cv@@QAE@ABV012@@Z
        364  16B 00048940 ??0PaniniPortraitWarper@detail@cv@@QAE@MMM@Z
        365  16C 000489D0 ??0PaniniWarper@detail@cv@@QAE@ABV012@@Z
        366  16D 00048A50 ??0PaniniWarper@detail@cv@@QAE@MMM@Z
        367  16E 0000D2B0 ??0ParallelLoopBody@cv@@QAE@ABV01@@Z
        368  16F 0000D2C0 ??0ParallelLoopBody@cv@@QAE@XZ
        369  170 00048AE0 ??0PlanePortraitWarper@detail@cv@@QAE@ABV012@@Z
        370  171 00048B60 ??0PlanePortraitWarper@detail@cv@@QAE@M@Z
        371  172 00048BD0 ??0PlaneWarper@detail@cv@@QAE@ABV012@@Z
        372  173 00048C50 ??0PlaneWarper@detail@cv@@QAE@M@Z
        373  174 00048CC0 ??0PlaneWarperGpu@detail@cv@@QAE@ABV012@@Z
        374  175 00048F30 ??0PlaneWarperGpu@detail@cv@@QAE@M@Z
        375  176 000391D0 ??0PyrLkOptFlowEstimatorBase@videostab@cv@@QAE@ABV012@@Z
        376  177 00039200 ??0PyrLkOptFlowEstimatorBase@videostab@cv@@QAE@XZ
        377  178 0000D2D0 ??0RNG@cv@@QAE@XZ
        378  179 0000D2E0 ??0RNG@cv@@QAE@_K@Z
        379  17A 0002F480 ??0RTrees@ml@cv@@QAE@ABV012@@Z
        380  17B 0002F4F0 ??0RTrees@ml@cv@@QAE@XZ
        381  17C 002DAE20 ??0Range@cv@@QAE@HH@Z
        382  17D 006365A0 ??0Range@cv@@QAE@XZ
        383  17E 00039230 ??0RansacParams@videostab@cv@@QAE@HMMM@Z
        384  17F 00023B40 ??0RansacParams@videostab@cv@@QAE@XZ
        385  180 0000F100 ??0RotatedRect@cv@@QAE@ABV01@@Z
        386  181 0000D310 ??0RotatedRect@cv@@QAE@ABV?$Point_@M@1@ABV?$Size_@M@1@M@Z
        387  182 0000CE90 ??0RotatedRect@cv@@QAE@XZ
        388  183 00049130 ??0RotationWarper@detail@cv@@QAE@ABV012@@Z
        389  184 00049140 ??0RotationWarper@detail@cv@@QAE@XZ
        390  185 000431E0 ??0SIFT@xfeatures2d@cv@@QAE@ABV012@@Z
        391  186 000432A0 ??0SIFT@xfeatures2d@cv@@QAE@XZ
        392  187 00043360 ??0SURF@xfeatures2d@cv@@QAE@ABV012@@Z
        393  188 00043420 ??0SURF@xfeatures2d@cv@@QAE@XZ
        394  189 00049150 ??0SURF_CUDA@cuda@cv@@QAE@ABV012@@Z
        395  18A 0000D230 ??0SVD@cv@@QAE@ABV01@@Z
        396  18B 0000D340 ??0SVD@cv@@QAE@ABV_InputArray@1@H@Z
        397  18C 0000D3C0 ??0SVD@cv@@QAE@XZ
        398  18D 0002F560 ??0SVM@ml@cv@@QAE@ABV012@@Z
        399  18E 0002F5C0 ??0SVM@ml@cv@@QAE@XZ
        400  18F 00049420 ??0SeamFinder@detail@cv@@QAE@ABV012@@Z
        401  190 00049430 ??0SeamFinder@detail@cv@@QAE@XZ
        402  191 00040830 ??0ShapeContextDistanceExtractor@cv@@QAE@ABV01@@Z
        403  192 00040890 ??0ShapeContextDistanceExtractor@cv@@QAE@XZ
        404  193 00040900 ??0ShapeDistanceExtractor@cv@@QAE@ABV01@@Z
        405  194 00040960 ??0ShapeDistanceExtractor@cv@@QAE@XZ
        406  195 000409C0 ??0ShapeTransformer@cv@@QAE@ABV01@@Z
        407  196 00040A20 ??0ShapeTransformer@cv@@QAE@XZ
        408  197 00015300 ??0SimilarRects@cv@@QAE@N@Z
        409  198 0001A6C0 ??0SimpleBlobDetector@cv@@QAE@ABV01@@Z
        410  199 0001A780 ??0SimpleBlobDetector@cv@@QAE@XZ
        411  19A 0000D430 ??0SparseMat@cv@@QAE@ABV01@@Z
        412  19B 0000D460 ??0SparseMat@cv@@QAE@HPBHH@Z
        413  19C 0000D490 ??0SparseMat@cv@@QAE@XZ
        414  19D 0000D4A0 ??0SparseMatConstIterator@cv@@QAE@ABV01@@Z
        415  19E 00022B50 ??0SparseMatConstIterator@cv@@QAE@XZ
        416  19F 0000D4A0 ??0SparseMatIterator@cv@@QAE@ABV01@@Z
        417  1A0 0000D4C0 ??0SparseMatIterator@cv@@QAE@PAVSparseMat@1@@Z
        418  1A1 00022B50 ??0SparseMatIterator@cv@@QAE@XZ
        419  1A2 00039260 ??0SparsePyrLkOptFlowEstimator@videostab@cv@@QAE@ABV012@@Z
        420  1A3 000392E0 ??0SparsePyrLkOptFlowEstimator@videostab@cv@@QAE@XZ
        421  1A4 00049440 ??0SphericalPortraitWarper@detail@cv@@QAE@ABV012@@Z
        422  1A5 000494C0 ??0SphericalPortraitWarper@detail@cv@@QAE@M@Z
        423  1A6 00049530 ??0SphericalWarper@detail@cv@@QAE@ABV012@@Z
        424  1A7 000495B0 ??0SphericalWarper@detail@cv@@QAE@M@Z
        425  1A8 00049620 ??0SphericalWarperGpu@detail@cv@@QAE@ABV012@@Z
        426  1A9 00049890 ??0SphericalWarperGpu@detail@cv@@QAE@M@Z
        427  1AA 00039370 ??0StabilizerBase@videostab@cv@@QAE@ABV012@@Z
        428  1AB 000434E0 ??0StarDetector@xfeatures2d@cv@@QAE@ABV012@@Z
        429  1AC 000435A0 ??0StarDetector@xfeatures2d@cv@@QAE@XZ
        430  1AD 0002F630 ??0StatModel@ml@cv@@QAE@ABV012@@Z
        431  1AE 0002F690 ??0StatModel@ml@cv@@QAE@XZ
        432  1AF 00033B60 ??0StereoBM@cv@@QAE@ABV01@@Z
        433  1B0 00033BC0 ??0StereoBM@cv@@QAE@XZ
        434  1B1 00033C30 ??0StereoMatcher@cv@@QAE@ABV01@@Z
        435  1B2 00033C90 ??0StereoMatcher@cv@@QAE@XZ
        436  1B3 00033CF0 ??0StereoSGBM@cv@@QAE@ABV01@@Z
        437  1B4 00033D50 ??0StereoSGBM@cv@@QAE@XZ
        438  1B5 00049A90 ??0StereographicWarper@detail@cv@@QAE@ABV012@@Z
        439  1B6 00049B10 ??0StereographicWarper@detail@cv@@QAE@M@Z
        440  1B7 00049B80 ??0Stitcher@cv@@QAE@ABV01@@Z
        441  1B8 00049E10 ??0Stitcher@cv@@QAE@XZ
        442  1B9 0004A040 ??0StitcherWrapper@cv@@QAE@ABV01@@Z
        443  1BA 0004A090 ??0StitcherWrapper@cv@@QAE@_N@Z
        444  1BB 0001F3C0 ??0Stream@cuda@cv@@AAE@ABU?$Ptr@VImpl@Stream@cuda@cv@@@2@@Z
        445  1BC 0001F3C0 ??0Stream@cuda@cv@@QAE@ABV012@@Z
        446  1BD 0000D4E0 ??0String@cv@@QAE@ABV01@@Z
        447  1BE 0000D510 ??0String@cv@@QAE@ABV01@II@Z
        448  1BF 0000D5B0 ??0String@cv@@QAE@ABV?$basic_string@DU?$char_traits@D@std@@V?$allocator@D@2@@std@@@Z
        449  1C0 0000D5F0 ??0String@cv@@QAE@ABV?$basic_string@DU?$char_traits@D@std@@V?$allocator@D@2@@std@@II@Z
        450  1C1 0000D660 ??0String@cv@@QAE@ABVFileNode@1@@Z
        451  1C2 0000D690 ??0String@cv@@QAE@ID@Z
        452  1C3 0000D6D0 ??0String@cv@@QAE@PBD0@Z
        453  1C4 0000D710 ??0String@cv@@QAE@PBD@Z
        454  1C5 0000D760 ??0String@cv@@QAE@PBDI@Z
        455  1C6 006365A0 ??0String@cv@@QAE@XZ
        456  1C7 00015320 ??0Subdiv2D@cv@@QAE@ABV01@@Z
        457  1C8 00036450 ??0SuperResolution@superres@cv@@QAE@ABV012@@Z
        458  1C9 0004A0E0 ??0SurfFeaturesFinder@detail@cv@@QAE@ABV012@@Z
        459  1CA 0004A1A0 ??0SurfFeaturesFinderGpu@detail@cv@@QAE@ABV012@@Z
        460  1CB 0000D7A0 ??0TLSDataContainer@cv@@QAE@ABV01@@Z
        461  1CC 0000D7C0 ??0TermCriteria@cv@@QAE@HHN@Z
        462  1CD 0000D7E0 ??0TermCriteria@cv@@QAE@XZ
        463  1CE 00040A80 ??0ThinPlateSplineShapeTransformer@cv@@QAE@ABV01@@Z
        464  1CF 00040AE0 ??0ThinPlateSplineShapeTransformer@cv@@QAE@XZ
        465  1D0 00035530 ??0Tonemap@cv@@QAE@ABV01@@Z
        466  1D1 00035590 ??0Tonemap@cv@@QAE@XZ
        467  1D2 000355F0 ??0TonemapDrago@cv@@QAE@ABV01@@Z
        468  1D3 00035650 ??0TonemapDrago@cv@@QAE@XZ
        469  1D4 000356C0 ??0TonemapDurand@cv@@QAE@ABV01@@Z
        470  1D5 00035720 ??0TonemapDurand@cv@@QAE@XZ
        471  1D6 00035790 ??0TonemapMantiuk@cv@@QAE@ABV01@@Z
        472  1D7 000357F0 ??0TonemapMantiuk@cv@@QAE@XZ
        473  1D8 00035860 ??0TonemapReinhard@cv@@QAE@ABV01@@Z
        474  1D9 000358C0 ??0TonemapReinhard@cv@@QAE@XZ
        475  1DA 0002F6F0 ??0TrainData@ml@cv@@QAE@ABV012@@Z
        476  1DB 0002F700 ??0TrainData@ml@cv@@QAE@XZ
        477  1DC 000395A0 ??0TranslationBasedLocalOutlierRejector@videostab@cv@@QAE@ABV012@@Z
        478  1DD 0004A3D0 ??0TransverseMercatorWarper@detail@cv@@QAE@ABV012@@Z
        479  1DE 0004A450 ??0TransverseMercatorWarper@detail@cv@@QAE@M@Z
        480  1DF 00039620 ??0TwoPassStabilizer@videostab@cv@@QAE@ABV012@@Z
        481  1E0 0000D800 ??0UMat@cv@@QAE@ABV01@@Z
        482  1E1 0000D8B0 ??0UMat@cv@@QAE@HHHABV?$Scalar_@N@1@W4UMatUsageFlags@1@@Z
        483  1E2 0000D970 ??0UMat@cv@@QAE@HHHW4UMatUsageFlags@1@@Z
        484  1E3 0000DA20 ??0UMat@cv@@QAE@HPBHHABV?$Scalar_@N@1@W4UMatUsageFlags@1@@Z
        485  1E4 0000DAA0 ??0UMat@cv@@QAE@HPBHHW4UMatUsageFlags@1@@Z
        486  1E5 0000DB10 ??0UMat@cv@@QAE@V?$Size_@H@1@HABV?$Scalar_@N@1@W4UMatUsageFlags@1@@Z
        487  1E6 0000DBD0 ??0UMat@cv@@QAE@V?$Size_@H@1@HW4UMatUsageFlags@1@@Z
        488  1E7 0000DC80 ??0UMat@cv@@QAE@W4UMatUsageFlags@1@@Z
        489  1E8 0000DCE0 ??0UMatDataAutoLock@cv@@QAE@PAUUMatData@1@@Z
        490  1E9 0000E500 ??0Vertex@Subdiv2D@cv@@QAE@ABU012@@Z
        491  1EA 0001C480 ??0VideoCapture@cv@@QAE@ABV01@@Z
        492  1EB 00039750 ??0VideoFileSource@videostab@cv@@QAE@ABV012@@Z
        493  1EC 0001C520 ??0VideoWriter@cv@@QAE@ABV01@@Z
        494  1ED 0004A4C0 ??0VoronoiSeamFinder@detail@cv@@QAE@ABV012@@Z
        495  1EE 0004A520 ??0VoronoiSeamFinder@detail@cv@@QAE@XZ
        496  1EF 000397D0 ??0WeightingDeblurer@videostab@cv@@QAE@ABV012@@Z
        497  1F0 000398A0 ??0WobbleSuppressorBase@videostab@cv@@QAE@ABV012@@Z
        498  1F1 0000DD00 ??0_InputArray@cv@@QAE@ABN@Z
        499  1F2 0000E500 ??0_InputArray@cv@@QAE@ABV01@@Z
        500  1F3 0000DD40 ??0_InputArray@cv@@QAE@ABV?$vector@VMat@cv@@V?$allocator@VMat@cv@@@std@@@std@@@Z
        501  1F4 0000DD70 ??0_InputArray@cv@@QAE@ABV?$vector@VUMat@cv@@V?$allocator@VUMat@cv@@@std@@@std@@@Z
        502  1F5 0000DDA0 ??0_InputArray@cv@@QAE@ABV?$vector@_NV?$allocator@_N@std@@@std@@@Z
        503  1F6 0000DDD0 ??0_InputArray@cv@@QAE@ABVBuffer@ogl@1@@Z
        504  1F7 0000DE00 ??0_InputArray@cv@@QAE@ABVGpuMat@cuda@1@@Z
        505  1F8 0000DE30 ??0_InputArray@cv@@QAE@ABVHostMem@cuda@1@@Z
        506  1F9 0000DE60 ??0_InputArray@cv@@QAE@ABVMat@1@@Z
        507  1FA 0000DE90 ??0_InputArray@cv@@QAE@ABVMatExpr@1@@Z
        508  1FB 0000DEC0 ??0_InputArray@cv@@QAE@ABVUMat@1@@Z
        509  1FC 0000DEF0 ??0_InputArray@cv@@QAE@HPAX@Z
        510  1FD 0000DF20 ??0_InputArray@cv@@QAE@XZ
        511  1FE 0000DF40 ??0_InputOutputArray@cv@@QAE@AAV?$vector@VMat@cv@@V?$allocator@VMat@cv@@@std@@@std@@@Z
        512  1FF 0000DF70 ??0_InputOutputArray@cv@@QAE@AAV?$vector@VUMat@cv@@V?$allocator@VUMat@cv@@@std@@@std@@@Z
        513  200 0000DFA0 ??0_InputOutputArray@cv@@QAE@AAV?$vector@_NV?$allocator@_N@std@@@std@@@Z
        514  201 0000E060 ??0_InputOutputArray@cv@@QAE@AAVBuffer@ogl@1@@Z
        515  202 0000E090 ??0_InputOutputArray@cv@@QAE@AAVGpuMat@cuda@1@@Z
        516  203 0000E0C0 ??0_InputOutputArray@cv@@QAE@AAVHostMem@cuda@1@@Z
        517  204 0000E0F0 ??0_InputOutputArray@cv@@QAE@AAVMat@1@@Z
        518  205 0000E120 ??0_InputOutputArray@cv@@QAE@AAVUMat@1@@Z
        519  206 0000E500 ??0_InputOutputArray@cv@@QAE@ABV01@@Z
        520  207 0000E150 ??0_InputOutputArray@cv@@QAE@ABV?$vector@VMat@cv@@V?$allocator@VMat@cv@@@std@@@std@@@Z
        521  208 0000E180 ??0_InputOutputArray@cv@@QAE@ABV?$vector@VUMat@cv@@V?$allocator@VUMat@cv@@@std@@@std@@@Z
        522  209 0000E1B0 ??0_InputOutputArray@cv@@QAE@ABVBuffer@ogl@1@@Z
        523  20A 0000E1E0 ??0_InputOutputArray@cv@@QAE@ABVGpuMat@cuda@1@@Z
        524  20B 0000E210 ??0_InputOutputArray@cv@@QAE@ABVHostMem@cuda@1@@Z
        525  20C 0000E240 ??0_InputOutputArray@cv@@QAE@ABVMat@1@@Z
        526  20D 0000E270 ??0_InputOutputArray@cv@@QAE@ABVUMat@1@@Z
        527  20E 0000E2A0 ??0_InputOutputArray@cv@@QAE@HPAX@Z
        528  20F 0000E2D0 ??0_InputOutputArray@cv@@QAE@XZ
        529  210 0000BDE0 ??0_IplImage@@QAE@XZ
        530  211 0000E2F0 ??0_OutputArray@cv@@QAE@AAV?$vector@VMat@cv@@V?$allocator@VMat@cv@@@std@@@std@@@Z
        531  212 0000E320 ??0_OutputArray@cv@@QAE@AAV?$vector@VUMat@cv@@V?$allocator@VUMat@cv@@@std@@@std@@@Z
        532  213 0000E350 ??0_OutputArray@cv@@QAE@AAV?$vector@_NV?$allocator@_N@std@@@std@@@Z
        533  214 0000E410 ??0_OutputArray@cv@@QAE@AAVBuffer@ogl@1@@Z
        534  215 0000E440 ??0_OutputArray@cv@@QAE@AAVGpuMat@cuda@1@@Z
        535  216 0000E470 ??0_OutputArray@cv@@QAE@AAVHostMem@cuda@1@@Z
        536  217 0000E4A0 ??0_OutputArray@cv@@QAE@AAVMat@1@@Z
        537  218 0000E4D0 ??0_OutputArray@cv@@QAE@AAVUMat@1@@Z
        538  219 0000E500 ??0_OutputArray@cv@@QAE@ABV01@@Z
        539  21A 0000E530 ??0_OutputArray@cv@@QAE@ABV?$vector@VMat@cv@@V?$allocator@VMat@cv@@@std@@@std@@@Z
        540  21B 0000E560 ??0_OutputArray@cv@@QAE@ABV?$vector@VUMat@cv@@V?$allocator@VUMat@cv@@@std@@@std@@@Z
        541  21C 0000E590 ??0_OutputArray@cv@@QAE@ABVBuffer@ogl@1@@Z
        542  21D 0000E5C0 ??0_OutputArray@cv@@QAE@ABVGpuMat@cuda@1@@Z
        543  21E 0000E5F0 ??0_OutputArray@cv@@QAE@ABVHostMem@cuda@1@@Z
        544  21F 0000E620 ??0_OutputArray@cv@@QAE@ABVMat@1@@Z
        545  220 0000E650 ??0_OutputArray@cv@@QAE@ABVUMat@1@@Z
        546  221 0000E680 ??0_OutputArray@cv@@QAE@HPAX@Z
        547  222 0000E6B0 ??0_OutputArray@cv@@QAE@XZ
        548  223 0004A580 ??1?$RotationWarperBase@UCompressedRectilinearPortraitProjector@detail@cv@@@detail@cv@@UAE@XZ
        549  224 0004A580 ??1?$RotationWarperBase@UCompressedRectilinearProjector@detail@cv@@@detail@cv@@UAE@XZ
        550  225 0004A580 ??1?$RotationWarperBase@UCylindricalPortraitProjector@detail@cv@@@detail@cv@@UAE@XZ
        551  226 0004A580 ??1?$RotationWarperBase@UCylindricalProjector@detail@cv@@@detail@cv@@UAE@XZ
        552  227 0004A580 ??1?$RotationWarperBase@UFisheyeProjector@detail@cv@@@detail@cv@@UAE@XZ
        553  228 0004A580 ??1?$RotationWarperBase@UMercatorProjector@detail@cv@@@detail@cv@@UAE@XZ
        554  229 0004A580 ??1?$RotationWarperBase@UPaniniPortraitProjector@detail@cv@@@detail@cv@@UAE@XZ
        555  22A 0004A580 ??1?$RotationWarperBase@UPaniniProjector@detail@cv@@@detail@cv@@UAE@XZ
        556  22B 0004A580 ??1?$RotationWarperBase@UPlanePortraitProjector@detail@cv@@@detail@cv@@UAE@XZ
        557  22C 0004A580 ??1?$RotationWarperBase@UPlaneProjector@detail@cv@@@detail@cv@@UAE@XZ
        558  22D 0004A580 ??1?$RotationWarperBase@USphericalPortraitProjector@detail@cv@@@detail@cv@@UAE@XZ
        559  22E 0004A580 ??1?$RotationWarperBase@USphericalProjector@detail@cv@@@detail@cv@@UAE@XZ
        560  22F 0004A580 ??1?$RotationWarperBase@UStereographicProjector@detail@cv@@@detail@cv@@UAE@XZ
        561  230 0004A580 ??1?$RotationWarperBase@UTransverseMercatorProjector@detail@cv@@@detail@cv@@UAE@XZ
        562  231 0001A890 ??1AKAZE@cv@@UAE@XZ
        563  232 00040B50 ??1ANN_MLP@ml@cv@@UAE@XZ
        564  233 00040B50 ??1AffineTransformer@cv@@UAE@XZ
        565  234 0001A890 ??1AgastFeatureDetector@cv@@UAE@XZ
        566  235 003E5910 ??1AlignExposures@cv@@UAE@XZ
        567  236 00040B50 ??1AlignMTB@cv@@UAE@XZ
        568  237 0001F430 ??1Allocator@GpuMat@cuda@cv@@UAE@XZ
        569  238 0000E700 ??1AutoLock@cv@@QAE@XZ
        570  239 0001A8E0 ??1AutotunedIndexParams@flann@cv@@QAE@XZ
        571  23A 0001A930 ??1BFMatcher@cv@@UAE@XZ
        572  23B 0001A890 ??1BRISK@cv@@UAE@XZ
        573  23C 003E5910 ??1BackgroundSubtractor@cv@@UAE@XZ
        574  23D 00040B50 ??1BackgroundSubtractorGMG@bgsegm@cv@@UAE@XZ
        575  23E 00040B50 ??1BackgroundSubtractorKNN@cv@@UAE@XZ
        576  23F 00040B50 ??1BackgroundSubtractorMOG2@cv@@UAE@XZ
        577  240 00040B50 ??1BackgroundSubtractorMOG@bgsegm@cv@@UAE@XZ
        578  241 00042020 ??1BasicFaceRecognizer@face@cv@@UAE@XZ
        579  242 0004A670 ??1BestOf2NearestMatcher@detail@cv@@UAE@XZ
        580  243 0004A6F0 ??1BestOf2NearestRangeMatcher@detail@cv@@UAE@XZ
        581  244 0004A770 ??1Blender@detail@cv@@UAE@XZ
        582  245 0004A7D0 ??1BlocksGainCompensator@detail@cv@@UAE@XZ
        583  246 0002F710 ??1Boost@ml@cv@@UAE@XZ
        584  247 0001A890 ??1BriefDescriptorExtractor@xfeatures2d@cv@@UAE@XZ
        585  248 000B8930 ??1BroxOpticalFlow@superres@cv@@UAE@XZ
        586  249 0004A860 ??1BundleAdjusterBase@detail@cv@@UAE@XZ
        587  24A 0004A930 ??1BundleAdjusterRay@detail@cv@@UAE@XZ
        588  24B 0004A930 ??1BundleAdjusterReproj@detail@cv@@UAE@XZ
        589  24C 003E5910 ??1CLAHE@cv@@UAE@XZ
        590  24D 003E5910 ??1CalibrateCRF@cv@@UAE@XZ
        591  24E 00040B50 ??1CalibrateDebevec@cv@@UAE@XZ
        592  24F 00040B50 ??1CalibrateRobertson@cv@@UAE@XZ
        593  250 0001DF60 ??1Callback@ERFilter@text@cv@@UAE@XZ
        594  251 0004A9D0 ??1CameraParams@detail@cv@@QAE@XZ
        595  252 00040B50 ??1ChiHistogramCostExtractor@cv@@UAE@XZ
        596  253 00039BD0 ??1ColorAverageInpainter@videostab@cv@@UAE@XZ
        597  254 00039C30 ??1ColorInpainter@videostab@cv@@UAE@XZ
        598  255 0001A8E0 ??1CompositeIndexParams@flann@cv@@QAE@XZ
        599  256 0004B600 ??1CompressedRectilinearPortraitWarper@detail@cv@@UAE@XZ
        600  257 0004B600 ??1CompressedRectilinearWarper@detail@cv@@UAE@XZ
        601  258 00040B50 ??1ConjGradSolver@cv@@UAE@XZ
        602  259 0003AA40 ??1ConsistentMosaicInpainter@videostab@cv@@UAE@XZ
        603  25A 0004B600 ??1CylindricalPortraitWarper@detail@cv@@UAE@XZ
        604  25B 0004B600 ??1CylindricalWarper@detail@cv@@UAE@XZ
        605  25C 0004AA60 ??1CylindricalWarperGpu@detail@cv@@UAE@XZ
        606  25D 0001A890 ??1DAISY@xfeatures2d@cv@@UAE@XZ
        607  25E 00040B50 ??1DTrees@ml@cv@@UAE@XZ
        608  25F 00039CA0 ??1DeblurerBase@videostab@cv@@UAE@XZ
        609  260 003E5910 ??1DenseOpticalFlow@cv@@UAE@XZ
        610  261 003E5910 ??1DenseOpticalFlowExt@superres@cv@@UAE@XZ
        611  262 0004AAF0 ??1DisjointSets@detail@cv@@QAE@XZ
        612  263 00040B50 ??1DownhillSolver@cv@@UAE@XZ
        613  264 0004ABB0 ??1DpSeamFinder@detail@cv@@UAE@XZ
        614  265 00040B50 ??1DualTVL1OpticalFlow@cv@@UAE@XZ
        615  266 000B8930 ??1DualTVL1OpticalFlow@superres@cv@@UAE@XZ
        616  267 00040B50 ??1EM@ml@cv@@UAE@XZ
        617  268 00040B50 ??1EMDHistogramCostExtractor@cv@@UAE@XZ
        618  269 00040B50 ??1EMDL1HistogramCostExtractor@cv@@UAE@XZ
        619  26A 003E5910 ??1ERFilter@text@cv@@UAE@XZ
        620  26B 000B8930 ??1ERStat@text@cv@@QAE@XZ
        621  26C 0004AEA0 ??1Estimator@detail@cv@@UAE@XZ
        622  26D 0007DC70 ??1Event@cuda@cv@@QAE@XZ
        623  26E 0004AEB0 ??1ExposureCompensator@detail@cv@@UAE@XZ
        624  26F 0001A890 ??1FREAK@xfeatures2d@cv@@UAE@XZ
        625  270 00041FA0 ??1FaceRecognizer@face@cv@@UAE@XZ
        626  271 000B8930 ??1FarnebackOpticalFlow@superres@cv@@UAE@XZ
        627  272 0001A890 ??1FastFeatureDetector@cv@@UAE@XZ
        628  273 00039CB0 ??1FastMarchingMethod@videostab@cv@@QAE@XZ
        629  274 0004AEC0 ??1FeatherBlender@detail@cv@@UAE@XZ
        630  275 0004AF50 ??1FeaturesFinder@detail@cv@@UAE@XZ
        631  276 0004AF60 ??1FeaturesMatcher@detail@cv@@UAE@XZ
        632  277 0004B600 ??1FisheyeWarper@detail@cv@@UAE@XZ
        633  278 0001A980 ??1FlannBasedMatcher@cv@@UAE@XZ
        634  279 00039DB0 ??1FromFileMotionReader@videostab@cv@@UAE@XZ
        635  27A 0000E840 ??1Function@MinProblemSolver@cv@@UAE@XZ
        636  27B 0001A890 ??1GFTTDetector@cv@@UAE@XZ
        637  27C 0004AF70 ??1GainCompensator@detail@cv@@UAE@XZ
        638  27D 00039E30 ??1GaussianMotionFilter@videostab@cv@@UAE@XZ
        639  27E 003E5910 ??1GeneralizedHough@cv@@UAE@XZ
        640  27F 00040B50 ??1GeneralizedHoughBallard@cv@@UAE@XZ
        641  280 00040B50 ??1GeneralizedHoughGuil@cv@@UAE@XZ
        642  281 0001F440 ??1GpuMat@cuda@cv@@QAE@XZ
        643  282 0004AFF0 ??1Graph@detail@cv@@QAE@XZ
        644  283 000153C0 ??1HOGDescriptor@cv@@UAE@XZ
        645  284 00040B50 ??1HausdorffDistanceExtractor@cv@@UAE@XZ
        646  285 0000E850 ??1Hdr@SparseMat@cv@@QAE@XZ
        647  286 0001A8E0 ??1HierarchicalClusteringIndexParams@flann@cv@@QAE@XZ
        648  287 003E5910 ??1HistogramCostExtractor@cv@@UAE@XZ
        649  288 0004B070 ??1HomographyBasedEstimator@detail@cv@@UAE@XZ
        650  289 0001F440 ??1HostMem@cuda@cv@@QAE@XZ
        651  28A 00039EB0 ??1IDenseOptFlowEstimator@videostab@cv@@UAE@XZ
        652  28B 00039EC0 ??1IFrameSource@videostab@cv@@UAE@XZ
        653  28C 00039ED0 ??1ILog@videostab@cv@@UAE@XZ
        654  28D 00039EE0 ??1IMotionStabilizer@videostab@cv@@UAE@XZ
        655  28E 00039EF0 ??1IOutlierRejector@videostab@cv@@UAE@XZ
        656  28F 00039F00 ??1ISparseOptFlowEstimator@videostab@cv@@UAE@XZ
        657  290 0004B0C0 ??1ImageFeatures@detail@cv@@QAE@XZ
        658  291 00039F10 ??1ImageMotionEstimatorBase@videostab@cv@@UAE@XZ
        659  292 00039F20 ??1InpainterBase@videostab@cv@@UAE@XZ
        660  293 00039F30 ??1InpaintingPipeline@videostab@cv@@UAE@XZ
        661  294 0001A890 ??1KAZE@cv@@UAE@XZ
        662  295 0001A8E0 ??1KDTreeIndexParams@flann@cv@@QAE@XZ
        663  296 0001A8E0 ??1KMeansIndexParams@flann@cv@@QAE@XZ
        664  297 00040B50 ??1KNearest@ml@cv@@UAE@XZ
        665  298 0002D300 ??1KalmanFilter@cv@@QAE@XZ
        666  299 003E5910 ??1Kernel@SVM@ml@cv@@UAE@XZ
        667  29A 00039FC0 ??1KeypointBasedMotionEstimator@videostab@cv@@UAE@XZ
        668  29B 0001A890 ??1LATCH@xfeatures2d@cv@@UAE@XZ
        669  29C 00042020 ??1LBPHFaceRecognizer@face@cv@@UAE@XZ
        670  29D 00021E60 ??1LSVMDetector@lsvm@cv@@UAE@XZ
        671  29E 0001A890 ??1LUCID@xfeatures2d@cv@@UAE@XZ
        672  29F 00015440 ??1LineSegmentDetector@cv@@UAE@XZ
        673  2A0 0001A8E0 ??1LinearIndexParams@flann@cv@@QAE@XZ
        674  2A1 0003A1C0 ??1LogToStdout@videostab@cv@@UAE@XZ
        675  2A2 00040B50 ??1LogisticRegression@ml@cv@@UAE@XZ
        676  2A3 0003A210 ??1LpMotionStabilizer@videostab@cv@@UAE@XZ
        677  2A4 0001A8E0 ??1LshIndexParams@flann@cv@@QAE@XZ
        678  2A5 0001A890 ??1MSER@cv@@UAE@XZ
        679  2A6 00015490 ??1MaskGenerator@BaseCascadeClassifier@cv@@UAE@XZ
        680  2A7 0000E8F0 ??1Mat@cv@@QAE@XZ
        681  2A8 0000E910 ??1MatAllocator@cv@@UAE@XZ
        682  2A9 0000E920 ??1MatExpr@cv@@QAE@XZ
        683  2AA 0004B140 ??1MatchesInfo@detail@cv@@QAE@XZ
        684  2AB 0004B600 ??1MercatorWarper@detail@cv@@UAE@XZ
        685  2AC 00040B50 ??1MergeDebevec@cv@@UAE@XZ
        686  2AD 003E5910 ??1MergeExposures@cv@@UAE@XZ
        687  2AE 00040B50 ??1MergeMertens@cv@@UAE@XZ
        688  2AF 00040B50 ??1MergeRobertson@cv@@UAE@XZ
        689  2B0 003E5910 ??1MinProblemSolver@cv@@UAE@XZ
        690  2B1 0003A3B0 ??1MoreAccurateMotionWobbleSuppressor@videostab@cv@@UAE@XZ
        691  2B2 0003AAE0 ??1MoreAccurateMotionWobbleSuppressorBase@videostab@cv@@UAE@XZ
        692  2B3 0003A480 ??1MotionEstimatorBase@videostab@cv@@UAE@XZ
        693  2B4 0003A490 ??1MotionEstimatorL1@videostab@cv@@UAE@XZ
        694  2B5 0003A630 ??1MotionEstimatorRansacL2@videostab@cv@@UAE@XZ
        695  2B6 0003A680 ??1MotionFilterBase@videostab@cv@@UAE@XZ
        696  2B7 0003A6D0 ??1MotionInpainter@videostab@cv@@UAE@XZ
        697  2B8 0003A910 ??1MotionStabilizationPipeline@videostab@cv@@UAE@XZ
        698  2B9 0004B200 ??1MultiBandBlender@detail@cv@@UAE@XZ
        699  2BA 0004B310 ??1NoExposureCompensator@detail@cv@@UAE@XZ
        700  2BB 0004B360 ??1NoSeamFinder@detail@cv@@UAE@XZ
        701  2BC 00040B50 ??1NormHistogramCostExtractor@cv@@UAE@XZ
        702  2BD 00040B50 ??1NormalBayesClassifier@ml@cv@@UAE@XZ
        703  2BE 0003A9A0 ??1NullDeblurer@videostab@cv@@UAE@XZ
        704  2BF 0003A9F0 ??1NullFrameSource@videostab@cv@@UAE@XZ
        705  2C0 0003AA40 ??1NullInpainter@videostab@cv@@UAE@XZ
        706  2C1 0003A1C0 ??1NullLog@videostab@cv@@UAE@XZ
        707  2C2 0003AA90 ??1NullOutlierRejector@videostab@cv@@UAE@XZ
        708  2C3 0003AAE0 ??1NullWobbleSuppressor@videostab@cv@@UAE@XZ
        709  2C4 0001A890 ??1ORB@cv@@UAE@XZ
        710  2C5 0003AB60 ??1OnePassStabilizer@videostab@cv@@UAE@XZ
        711  2C6 0004B3B0 ??1OrbFeaturesFinder@detail@cv@@UAE@XZ
        712  2C7 0000E9D0 ??1PCA@cv@@QAE@XZ
        713  2C8 0004B430 ??1PairwiseSeamFinder@detail@cv@@UAE@XZ
        714  2C9 0004B600 ??1PaniniPortraitWarper@detail@cv@@UAE@XZ
        715  2CA 0004B600 ??1PaniniWarper@detail@cv@@UAE@XZ
        716  2CB 0004B600 ??1PlanePortraitWarper@detail@cv@@UAE@XZ
        717  2CC 0004B600 ??1PlaneWarper@detail@cv@@UAE@XZ
        718  2CD 0004AA60 ??1PlaneWarperGpu@detail@cv@@UAE@XZ
        719  2CE 0003ABF0 ??1PyrLkOptFlowEstimatorBase@videostab@cv@@UAE@XZ
        720  2CF 0002F710 ??1RTrees@ml@cv@@UAE@XZ
        721  2D0 0004B550 ??1RotationWarper@detail@cv@@UAE@XZ
        722  2D1 0001A890 ??1SIFT@xfeatures2d@cv@@UAE@XZ
        723  2D2 0001A890 ??1SURF@xfeatures2d@cv@@UAE@XZ
        724  2D3 0004B560 ??1SURF_CUDA@cuda@cv@@QAE@XZ
        725  2D4 0000E9D0 ??1SVD@cv@@QAE@XZ
        726  2D5 00040B50 ??1SVM@ml@cv@@UAE@XZ
        727  2D6 0001A8E0 ??1SavedIndexParams@flann@cv@@QAE@XZ
        728  2D7 0004B5F0 ??1SeamFinder@detail@cv@@UAE@XZ
        729  2D8 0001A8E0 ??1SearchParams@flann@cv@@QAE@XZ
        730  2D9 00040B50 ??1ShapeContextDistanceExtractor@cv@@UAE@XZ
        731  2DA 003E5910 ??1ShapeDistanceExtractor@cv@@UAE@XZ
        732  2DB 003E5910 ??1ShapeTransformer@cv@@UAE@XZ
        733  2DC 0001A890 ??1SimpleBlobDetector@cv@@UAE@XZ
        734  2DD 0000EA80 ??1SparseMat@cv@@QAE@XZ
        735  2DE 0003AC00 ??1SparsePyrLkOptFlowEstimator@videostab@cv@@UAE@XZ
        736  2DF 0004B600 ??1SphericalPortraitWarper@detail@cv@@UAE@XZ
        737  2E0 0004B600 ??1SphericalWarper@detail@cv@@UAE@XZ
        738  2E1 0004AA60 ??1SphericalWarperGpu@detail@cv@@UAE@XZ
        739  2E2 0003AC50 ??1StabilizerBase@videostab@cv@@UAE@XZ
        740  2E3 0001A890 ??1StarDetector@xfeatures2d@cv@@UAE@XZ
        741  2E4 003E5910 ??1StatModel@ml@cv@@UAE@XZ
        742  2E5 00040B50 ??1StereoBM@cv@@UAE@XZ
        743  2E6 003E5910 ??1StereoMatcher@cv@@UAE@XZ
        744  2E7 00040B50 ??1StereoSGBM@cv@@UAE@XZ
        745  2E8 0004B600 ??1StereographicWarper@detail@cv@@UAE@XZ
        746  2E9 0004B650 ??1Stitcher@cv@@QAE@XZ
        747  2EA 0004BA40 ??1StitcherWrapper@cv@@QAE@XZ
        748  2EB 0007DC70 ??1Stream@cuda@cv@@QAE@XZ
        749  2EC 0000EAD0 ??1String@cv@@QAE@XZ
        750  2ED 000154A0 ??1Subdiv2D@cv@@QAE@XZ
        751  2EE 000364F0 ??1SuperResolution@superres@cv@@UAE@XZ
        752  2EF 0004BA90 ??1SurfFeaturesFinder@detail@cv@@UAE@XZ
        753  2F0 0004BB60 ??1SurfFeaturesFinderGpu@detail@cv@@UAE@XZ
        754  2F1 00040B50 ??1ThinPlateSplineShapeTransformer@cv@@UAE@XZ
        755  2F2 0003AFD0 ??1ToFileMotionWriter@videostab@cv@@UAE@XZ
        756  2F3 003E5910 ??1Tonemap@cv@@UAE@XZ
        757  2F4 00040B50 ??1TonemapDrago@cv@@UAE@XZ
        758  2F5 00040B50 ??1TonemapDurand@cv@@UAE@XZ
        759  2F6 00040B50 ??1TonemapMantiuk@cv@@UAE@XZ
        760  2F7 00040B50 ??1TonemapReinhard@cv@@UAE@XZ
        761  2F8 0003B080 ??1TranslationBasedLocalOutlierRejector@videostab@cv@@UAE@XZ
        762  2F9 0004B600 ??1TransverseMercatorWarper@detail@cv@@UAE@XZ
        763  2FA 0003B110 ??1TwoPassStabilizer@videostab@cv@@UAE@XZ
        764  2FB 0000EAE0 ??1UMatDataAutoLock@cv@@QAE@XZ
        765  2FC 0003B250 ??1VideoFileSource@videostab@cv@@UAE@XZ
        766  2FD 0004BBF0 ??1VoronoiSeamFinder@detail@cv@@UAE@XZ
        767  2FE 0003B2D0 ??1WeightingDeblurer@videostab@cv@@UAE@XZ
        768  2FF 0003B3D0 ??1WobbleSuppressorBase@videostab@cv@@UAE@XZ
        769  300 000B8930 ??1_InputArray@cv@@QAE@XZ
        770  301 000B8930 ??1_InputOutputArray@cv@@QAE@XZ
        771  302 000B8930 ??1_OutputArray@cv@@QAE@XZ
        772  303 0004C940 ??4?$RotationWarperBase@UCompressedRectilinearPortraitProjector@detail@cv@@@detail@cv@@QAEAAV012@ABV012@@Z
        773  304 0004C940 ??4?$RotationWarperBase@UCompressedRectilinearProjector@detail@cv@@@detail@cv@@QAEAAV012@ABV012@@Z
        774  305 0004CB90 ??4?$RotationWarperBase@UCylindricalPortraitProjector@detail@cv@@@detail@cv@@QAEAAV012@ABV012@@Z
        775  306 0004CB90 ??4?$RotationWarperBase@UCylindricalProjector@detail@cv@@@detail@cv@@QAEAAV012@ABV012@@Z
        776  307 0004CB90 ??4?$RotationWarperBase@UFisheyeProjector@detail@cv@@@detail@cv@@QAEAAV012@ABV012@@Z
        777  308 0004CB90 ??4?$RotationWarperBase@UMercatorProjector@detail@cv@@@detail@cv@@QAEAAV012@ABV012@@Z
        778  309 0004C940 ??4?$RotationWarperBase@UPaniniPortraitProjector@detail@cv@@@detail@cv@@QAEAAV012@ABV012@@Z
        779  30A 0004C940 ??4?$RotationWarperBase@UPaniniProjector@detail@cv@@@detail@cv@@QAEAAV012@ABV012@@Z
        780  30B 0004CB90 ??4?$RotationWarperBase@UPlanePortraitProjector@detail@cv@@@detail@cv@@QAEAAV012@ABV012@@Z
        781  30C 0004CB90 ??4?$RotationWarperBase@UPlaneProjector@detail@cv@@@detail@cv@@QAEAAV012@ABV012@@Z
        782  30D 0004CB90 ??4?$RotationWarperBase@USphericalPortraitProjector@detail@cv@@@detail@cv@@QAEAAV012@ABV012@@Z
        783  30E 0004CB90 ??4?$RotationWarperBase@USphericalProjector@detail@cv@@@detail@cv@@QAEAAV012@ABV012@@Z
        784  30F 0004CB90 ??4?$RotationWarperBase@UStereographicProjector@detail@cv@@@detail@cv@@QAEAAV012@ABV012@@Z
        785  310 0004CB90 ??4?$RotationWarperBase@UTransverseMercatorProjector@detail@cv@@@detail@cv@@QAEAAV012@ABV012@@Z
        786  311 0003C250 ??4AKAZE@cv@@QAEAAV01@ABV01@@Z
        787  312 0003C250 ??4ANN_MLP@ml@cv@@QAEAAV012@ABV012@@Z
        788  313 0003C250 ??4AffineTransformer@cv@@QAEAAV01@ABV01@@Z
        789  314 0003C250 ??4AgastFeatureDetector@cv@@QAEAAV01@ABV01@@Z
        790  315 0003C250 ??4Algorithm@cv@@QAEAAV01@ABV01@@Z
        791  316 0003C250 ??4AlignExposures@cv@@QAEAAV01@ABV01@@Z
        792  317 0003C250 ??4AlignMTB@cv@@QAEAAV01@ABV01@@Z
        793  318 0003C250 ??4Allocator@GpuMat@cuda@cv@@QAEAAV0123@ABV0123@@Z
        794  319 0000F570 ??4AutotunedIndexParams@flann@cv@@QAEAAU012@ABU012@@Z
        795  31A 0001ADF0 ??4BFMatcher@cv@@QAEAAV01@ABV01@@Z
        796  31B 0001AE30 ??4BOWImgDescriptorExtractor@cv@@QAEAAV01@ABV01@@Z
        797  31C 0001AE70 ??4BOWKMeansTrainer@cv@@QAEAAV01@ABV01@@Z
        798  31D 0001AEB0 ??4BOWTrainer@cv@@QAEAAV01@ABV01@@Z
        799  31E 0003C250 ??4BRISK@cv@@QAEAAV01@ABV01@@Z
        800  31F 0003C250 ??4BackgroundSubtractor@cv@@QAEAAV01@ABV01@@Z
        801  320 0003C250 ??4BackgroundSubtractorGMG@bgsegm@cv@@QAEAAV012@ABV012@@Z
        802  321 0003C250 ??4BackgroundSubtractorKNN@cv@@QAEAAV01@ABV01@@Z
        803  322 0003C250 ??4BackgroundSubtractorMOG2@cv@@QAEAAV01@ABV01@@Z
        804  323 0003C250 ??4BackgroundSubtractorMOG@bgsegm@cv@@QAEAAV012@ABV012@@Z
        805  324 0003C250 ??4BaseCascadeClassifier@cv@@QAEAAV01@ABV01@@Z
        806  325 000420A0 ??4BasicFaceRecognizer@face@cv@@QAEAAV012@ABV012@@Z
        807  326 0004C790 ??4BestOf2NearestMatcher@detail@cv@@QAEAAV012@ABV012@@Z
        808  327 0004C7C0 ??4BestOf2NearestRangeMatcher@detail@cv@@QAEAAV012@ABV012@@Z
        809  328 0004C800 ??4Blender@detail@cv@@QAEAAV012@ABV012@@Z
        810  329 0004C850 ??4BlocksGainCompensator@detail@cv@@QAEAAV012@ABV012@@Z
        811  32A 0003C250 ??4Boost@ml@cv@@QAEAAV012@ABV012@@Z
        812  32B 0003C250 ??4BriefDescriptorExtractor@xfeatures2d@cv@@QAEAAV012@ABV012@@Z
        813  32C 0003C250 ??4BroxOpticalFlow@superres@cv@@QAEAAV012@ABV012@@Z
        814  32D 0004C880 ??4BundleAdjusterBase@detail@cv@@QAEAAV012@ABV012@@Z
        815  32E 0004C900 ??4BundleAdjusterRay@detail@cv@@QAEAAV012@ABV012@@Z
        816  32F 0004C900 ??4BundleAdjusterReproj@detail@cv@@QAEAAV012@ABV012@@Z
        817  330 0003C250 ??4CLAHE@cv@@QAEAAV01@ABV01@@Z
        818  331 0003C250 ??4CalibrateCRF@cv@@QAEAAV01@ABV01@@Z
        819  332 0003C250 ??4CalibrateDebevec@cv@@QAEAAV01@ABV01@@Z
        820  333 0003C250 ??4CalibrateRobertson@cv@@QAEAAV01@ABV01@@Z
        821  334 0003C250 ??4Callback@ERFilter@text@cv@@QAEAAV0123@ABV0123@@Z
        822  335 00015AC0 ??4CascadeClassifier@cv@@QAEAAV01@ABV01@@Z
        823  336 0003C250 ??4ChiHistogramCostExtractor@cv@@QAEAAV01@ABV01@@Z
        824  337 0003BBC0 ??4ColorAverageInpainter@videostab@cv@@QAEAAV012@ABV012@@Z
        825  338 0003BC50 ??4ColorInpainter@videostab@cv@@QAEAAV012@ABV012@@Z
        826  339 0000F570 ??4CompositeIndexParams@flann@cv@@QAEAAU012@ABU012@@Z
        827  33A 0004C960 ??4CompressedRectilinearPortraitProjector@detail@cv@@QAEAAU012@ABU012@@Z
        828  33B 0004C940 ??4CompressedRectilinearPortraitWarper@detail@cv@@QAEAAV012@ABV012@@Z
        829  33C 0004C960 ??4CompressedRectilinearProjector@detail@cv@@QAEAAU012@ABU012@@Z
        830  33D 0004C940 ??4CompressedRectilinearWarper@detail@cv@@QAEAAV012@ABV012@@Z
        831  33E 0003C250 ??4ConjGradSolver@cv@@QAEAAV01@ABV01@@Z
        832  33F 0003BCA0 ??4ConsistentMosaicInpainter@videostab@cv@@QAEAAV012@ABV012@@Z
        833  340 00033DC0 ??4CvLevMarq@@QAEAAV0@ABV0@@Z
        834  341 0000EDB0 ??4CvMatND@@QAEAAU0@ABU0@@Z
        835  342 0000EDD0 ??4CvSparseMat@@QAEAAU0@ABU0@@Z
        836  343 0000F570 ??4CvType@@QAEAAU0@ABU0@@Z
        837  344 0004CB90 ??4CylindricalPortraitWarper@detail@cv@@QAEAAV012@ABV012@@Z
        838  345 0004C980 ??4CylindricalProjector@detail@cv@@QAEAAU012@ABU012@@Z
        839  346 0004CB90 ??4CylindricalWarper@detail@cv@@QAEAAV012@ABV012@@Z
        840  347 0004CE70 ??4CylindricalWarperGpu@detail@cv@@QAEAAV012@ABV012@@Z
        841  348 0003C250 ??4DAISY@xfeatures2d@cv@@QAEAAV012@ABV012@@Z
        842  349 0000EDF0 ??4DMatch@cv@@QAEAAV01@ABV01@@Z
        843  34A 0003C250 ??4DTrees@ml@cv@@QAEAAV012@ABV012@@Z
        844  34B 0004CC10 ??4DataLogger@emgu@@QAEAAV01@ABV01@@Z
        845  34C 0003BCE0 ??4DeblurerBase@videostab@cv@@QAEAAV012@ABV012@@Z
        846  34D 0003C250 ??4DenseOpticalFlow@cv@@QAEAAV01@ABV01@@Z
        847  34E 0003C250 ??4DenseOpticalFlowExt@superres@cv@@QAEAAV012@ABV012@@Z
        848  34F 0001AEE0 ??4DescriptorCollection@DescriptorMatcher@cv@@QAEAAV012@ABV012@@Z
        849  350 0001AF10 ??4DescriptorMatcher@cv@@QAEAAV01@ABV01@@Z
        850  351 00015AE0 ??4DetectionBasedTracker@cv@@QAEAAV01@ABV01@@Z
        851  352 0000F570 ??4DeviceInfo@cuda@cv@@QAEAAV012@ABV012@@Z
        852  353 0004C9A0 ??4DisjointSets@detail@cv@@QAEAAV012@ABV012@@Z
        853  354 0003C250 ??4DownhillSolver@cv@@QAEAAV01@ABV01@@Z
        854  355 0004C9D0 ??4DpSeamFinder@detail@cv@@QAEAAV012@ABV012@@Z
        855  356 0003C250 ??4DrawMatchesFlags@cv@@QAEAAU01@ABU01@@Z
        856  357 0003C250 ??4DualTVL1OpticalFlow@cv@@QAEAAV01@ABV01@@Z
        857  358 0003C250 ??4DualTVL1OpticalFlow@superres@cv@@QAEAAV012@ABV012@@Z
        858  359 0003C250 ??4EM@ml@cv@@QAEAAV012@ABV012@@Z
        859  35A 0003C250 ??4EMDHistogramCostExtractor@cv@@QAEAAV01@ABV01@@Z
        860  35B 0003C250 ??4EMDL1HistogramCostExtractor@cv@@QAEAAV01@ABV01@@Z
        861  35C 0003C250 ??4ERFilter@text@cv@@QAEAAV012@ABV012@@Z
        862  35D 0001DF70 ??4ERStat@text@cv@@QAEAAU012@ABU012@@Z
        863  35E 0003C250 ??4Estimator@detail@cv@@QAEAAV012@ABV012@@Z
        864  35F 00015AC0 ??4Event@cuda@cv@@QAEAAV012@ABV012@@Z
        865  360 0000EE10 ??4Exception@cv@@QAEAAV01@ABV01@@Z
        866  361 0003C250 ??4ExposureCompensator@detail@cv@@QAEAAV012@ABV012@@Z
        867  362 0003C250 ??4FREAK@xfeatures2d@cv@@QAEAAV012@ABV012@@Z
        868  363 000420A0 ??4FaceRecognizer@face@cv@@QAEAAV012@ABV012@@Z
        869  364 0003C250 ??4FarnebackOpticalFlow@superres@cv@@QAEAAV012@ABV012@@Z
        870  365 0003C250 ??4FastFeatureDetector@cv@@QAEAAV01@ABV01@@Z
        871  366 0003BD10 ??4FastMarchingMethod@videostab@cv@@QAEAAV012@ABV012@@Z
        872  367 0004CB20 ??4FeatherBlender@detail@cv@@QAEAAV012@ABV012@@Z
        873  368 0003C250 ??4Feature2D@cv@@QAEAAV01@ABV01@@Z
        874  369 0003C250 ??4FeaturesFinder@detail@cv@@QAEAAV012@ABV012@@Z
        875  36A 0004CC30 ??4FeaturesMatcher@detail@cv@@QAEAAV012@ABV012@@Z
        876  36B 0000F220 ??4FileNode@cv@@QAEAAV01@ABV01@@Z
        877  36C 0000EEF0 ??4FileNodeIterator@cv@@QAEAAV01@ABV01@@Z
        878  36D 0000EF20 ??4FileStorage@cv@@QAEAAV01@ABV01@@Z
        879  36E 0004C980 ??4FisheyeProjector@detail@cv@@QAEAAU012@ABU012@@Z
        880  36F 0004CB90 ??4FisheyeWarper@detail@cv@@QAEAAV012@ABV012@@Z
        881  370 0001AF40 ??4FlannBasedMatcher@cv@@QAEAAV01@ABV01@@Z
        882  371 0003C250 ??4Formatted@cv@@QAEAAV01@ABV01@@Z
        883  372 0003C250 ??4Formatter@cv@@QAEAAV01@ABV01@@Z
        884  373 0003C250 ??4FrameSource@superres@cv@@QAEAAV012@ABV012@@Z
        885  374 0003C250 ??4Function@MinProblemSolver@cv@@QAEAAV012@ABV012@@Z
        886  375 0003C250 ??4GFTTDetector@cv@@QAEAAV01@ABV01@@Z
        887  376 0004CBB0 ??4GainCompensator@detail@cv@@QAEAAV012@ABV012@@Z
        888  377 0003BD70 ??4GaussianMotionFilter@videostab@cv@@QAEAAV012@ABV012@@Z
        889  378 0003C250 ??4GeneralizedHough@cv@@QAEAAV01@ABV01@@Z
        890  379 0003C250 ??4GeneralizedHoughBallard@cv@@QAEAAV01@ABV01@@Z
        891  37A 0003C250 ??4GeneralizedHoughGuil@cv@@QAEAAV01@ABV01@@Z
        892  37B 0001F450 ??4GpuMat@cuda@cv@@QAEAAV012@ABV012@@Z
        893  37C 0004CBD0 ??4Graph@detail@cv@@QAEAAV012@ABV012@@Z
        894  37D 0004CBF0 ??4GraphCutSeamFinder@detail@cv@@QAEAAV012@ABV012@@Z
        895  37E 0003C250 ??4GraphCutSeamFinderBase@detail@cv@@QAEAAV012@ABV012@@Z
        896  37F 0004CC10 ??4GraphEdge@detail@cv@@QAEAAU012@ABU012@@Z
        897  380 00015B60 ??4HOGDescriptor@cv@@QAEAAU01@ABU01@@Z
        898  381 0003C250 ??4Hamming@cv@@QAEAAU01@ABU01@@Z
        899  382 0003C250 ??4HausdorffDistanceExtractor@cv@@QAEAAV01@ABV01@@Z
        900  383 0000EF90 ??4Hdr@SparseMat@cv@@QAEAAU012@ABU012@@Z
        901  384 0000F570 ??4HierarchicalClusteringIndexParams@flann@cv@@QAEAAU012@ABU012@@Z
        902  385 0003C250 ??4HistogramCostExtractor@cv@@QAEAAV01@ABV01@@Z
        903  386 0004CC30 ??4HomographyBasedEstimator@detail@cv@@QAEAAV012@ABV012@@Z
        904  387 0001F450 ??4HostMem@cuda@cv@@QAEAAV012@ABV012@@Z
        905  388 0003C250 ??4IDenseOptFlowEstimator@videostab@cv@@QAEAAV012@ABV012@@Z
        906  389 0003C250 ??4IFrameSource@videostab@cv@@QAEAAV012@ABV012@@Z
        907  38A 0003C250 ??4ILog@videostab@cv@@QAEAAV012@ABV012@@Z
        908  38B 0003C250 ??4IMotionStabilizer@videostab@cv@@QAEAAV012@ABV012@@Z
        909  38C 0003C250 ??4IOutlierRejector@videostab@cv@@QAEAAV012@ABV012@@Z
        910  38D 0003C250 ??4ISparseOptFlowEstimator@videostab@cv@@QAEAAV012@ABV012@@Z
        911  38E 0004CC50 ??4ImageFeatures@detail@cv@@QAEAAU012@ABU012@@Z
        912  38F 0003BDA0 ??4ImageMotionEstimatorBase@videostab@cv@@QAEAAV012@ABV012@@Z
        913  390 0003BCE0 ??4Index@flann@cv@@QAEAAV012@ABV012@@Z
        914  391 0000F570 ??4IndexParams@flann@cv@@QAEAAU012@ABU012@@Z
        915  392 0003BDC0 ??4InpainterBase@videostab@cv@@QAEAAV012@ABV012@@Z
        916  393 0003BDF0 ??4InpaintingPipeline@videostab@cv@@QAEAAV012@ABV012@@Z
        917  394 0003C250 ??4KAZE@cv@@QAEAAV01@ABV01@@Z
        918  395 0000F570 ??4KDTreeIndexParams@flann@cv@@QAEAAU012@ABU012@@Z
        919  396 0000F570 ??4KMeansIndexParams@flann@cv@@QAEAAU012@ABU012@@Z
        920  397 0003C250 ??4KNearest@ml@cv@@QAEAAV012@ABV012@@Z
        921  398 0002D590 ??4KalmanFilter@cv@@QAEAAV01@ABV01@@Z
        922  399 0003C250 ??4Kernel@SVM@ml@cv@@QAEAAV0123@ABV0123@@Z
        923  39A 00022470 ??4KernelArg@ocl@cv@@QAEAAV012@ABV012@@Z
        924  39B 00702E30 ??4KeyPoint@cv@@QAEAAV01@ABV01@@Z
        925  39C 0003C250 ??4KeyPointsFilter@cv@@QAEAAV01@ABV01@@Z
        926  39D 0003BE30 ??4KeypointBasedMotionEstimator@videostab@cv@@QAEAAV012@ABV012@@Z
        927  39E 0003C250 ??4LATCH@xfeatures2d@cv@@QAEAAV012@ABV012@@Z
        928  39F 000420A0 ??4LBPHFaceRecognizer@face@cv@@QAEAAV012@ABV012@@Z
        929  3A0 0000F000 ??4LDA@cv@@QAEAAV01@ABV01@@Z
        930  3A1 0003C250 ??4LSVMDetector@lsvm@cv@@QAEAAV012@ABV012@@Z
        931  3A2 0003C250 ??4LUCID@xfeatures2d@cv@@QAEAAV012@ABV012@@Z
        932  3A3 00015C10 ??4LineIterator@cv@@QAEAAV01@ABV01@@Z
        933  3A4 0003C250 ??4LineSegmentDetector@cv@@QAEAAV01@ABV01@@Z
        934  3A5 0000F570 ??4LinearIndexParams@flann@cv@@QAEAAU012@ABU012@@Z
        935  3A6 0003C250 ??4LogToStdout@videostab@cv@@QAEAAV012@ABV012@@Z
        936  3A7 0003C250 ??4LogisticRegression@ml@cv@@QAEAAV012@ABV012@@Z
        937  3A8 0003BEC0 ??4LpMotionStabilizer@videostab@cv@@QAEAAV012@ABV012@@Z
        938  3A9 0000F570 ??4LshIndexParams@flann@cv@@QAEAAU012@ABU012@@Z
        939  3AA 0003C250 ??4MSER@cv@@QAEAAV01@ABV01@@Z
        940  3AB 0003C250 ??4MaskGenerator@BaseCascadeClassifier@cv@@QAEAAV012@ABV012@@Z
        941  3AC 0000F040 ??4Mat@cv@@QAEAAV01@ABV01@@Z
        942  3AD 0000F0E0 ??4Mat@cv@@QAEAAV01@ABVMatExpr@1@@Z
        943  3AE 0003C250 ??4MatAllocator@cv@@QAEAAV01@ABV01@@Z
        944  3AF 0000F100 ??4MatConstIterator@cv@@QAEAAV01@ABV01@@Z
        945  3B0 0000F130 ??4MatExpr@cv@@QAEAAV01@ABV01@@Z
        946  3B1 0003C250 ??4MatOp@cv@@QAEAAV01@ABV01@@Z
        947  3B2 0000F570 ??4MatSize@cv@@QAEAAU01@ABU01@@Z
        948  3B3 0000F1B0 ??4MatStep@cv@@QAEAAU01@I@Z
        949  3B4 0003C250 ??4Matx_AddOp@cv@@QAEAAU01@ABU01@@Z
        950  3B5 0003C250 ??4Matx_DivOp@cv@@QAEAAU01@ABU01@@Z
        951  3B6 0003C250 ??4Matx_MatMulOp@cv@@QAEAAU01@ABU01@@Z
        952  3B7 0003C250 ??4Matx_MulOp@cv@@QAEAAU01@ABU01@@Z
        953  3B8 0003C250 ??4Matx_ScaleOp@cv@@QAEAAU01@ABU01@@Z
        954  3B9 0003C250 ??4Matx_SubOp@cv@@QAEAAU01@ABU01@@Z
        955  3BA 0003C250 ??4Matx_TOp@cv@@QAEAAU01@ABU01@@Z
        956  3BB 0004C980 ??4MercatorProjector@detail@cv@@QAEAAU012@ABU012@@Z
        957  3BC 0004CB90 ??4MercatorWarper@detail@cv@@QAEAAV012@ABV012@@Z
        958  3BD 0003C250 ??4MergeDebevec@cv@@QAEAAV01@ABV01@@Z
        959  3BE 0003C250 ??4MergeExposures@cv@@QAEAAV01@ABV01@@Z
        960  3BF 0003C250 ??4MergeMertens@cv@@QAEAAV01@ABV01@@Z
        961  3C0 0003C250 ??4MergeRobertson@cv@@QAEAAV01@ABV01@@Z
        962  3C1 0003C250 ??4MinProblemSolver@cv@@QAEAAV01@ABV01@@Z
        963  3C2 0000F1C0 ??4Moments@cv@@QAEAAV01@ABV01@@Z
        964  3C3 0003BF70 ??4MoreAccurateMotionWobbleSuppressor@videostab@cv@@QAEAAV012@ABV012@@Z
        965  3C4 0003BFD0 ??4MoreAccurateMotionWobbleSuppressorBase@videostab@cv@@QAEAAV012@ABV012@@Z
        966  3C5 0003BDA0 ??4MotionEstimatorBase@videostab@cv@@QAEAAV012@ABV012@@Z
        967  3C6 0003C010 ??4MotionEstimatorL1@videostab@cv@@QAEAAV012@ABV012@@Z
        968  3C7 0003C090 ??4MotionEstimatorRansacL2@videostab@cv@@QAEAAV012@ABV012@@Z
        969  3C8 0003C250 ??4MotionFilterBase@videostab@cv@@QAEAAV012@ABV012@@Z
        970  3C9 0003C0C0 ??4MotionInpainter@videostab@cv@@QAEAAV012@ABV012@@Z
        971  3CA 0003C230 ??4MotionStabilizationPipeline@videostab@cv@@QAEAAV012@ABV012@@Z
        972  3CB 0004CC90 ??4MultiBandBlender@detail@cv@@QAEAAV012@ABV012@@Z
        973  3CC 0000F1E0 ??4NAryMatIterator@cv@@QAEAAV01@ABV01@@Z
        974  3CD 0003C250 ??4NoExposureCompensator@detail@cv@@QAEAAV012@ABV012@@Z
        975  3CE 0003C250 ??4NoSeamFinder@detail@cv@@QAEAAV012@ABV012@@Z
        976  3CF 0000F1E0 ??4Node@DTrees@ml@cv@@QAEAAV0123@ABV0123@@Z
        977  3D0 0000F200 ??4Node@SparseMat@cv@@QAEAAU012@ABU012@@Z
        978  3D1 0003C250 ??4NormHistogramCostExtractor@cv@@QAEAAV01@ABV01@@Z
        979  3D2 0003C250 ??4NormalBayesClassifier@ml@cv@@QAEAAV012@ABV012@@Z
        980  3D3 0003BCE0 ??4NullDeblurer@videostab@cv@@QAEAAV012@ABV012@@Z
        981  3D4 0003C250 ??4NullFrameSource@videostab@cv@@QAEAAV012@ABV012@@Z
        982  3D5 0003BDC0 ??4NullInpainter@videostab@cv@@QAEAAV012@ABV012@@Z
        983  3D6 0003C250 ??4NullLog@videostab@cv@@QAEAAV012@ABV012@@Z
        984  3D7 0003C250 ??4NullOutlierRejector@videostab@cv@@QAEAAV012@ABV012@@Z
        985  3D8 0003C560 ??4NullWobbleSuppressor@videostab@cv@@QAEAAV012@ABV012@@Z
        986  3D9 0003C250 ??4ORB@cv@@QAEAAV01@ABV01@@Z
        987  3DA 00021E70 ??4ObjectDetection@LSVMDetector@lsvm@cv@@QAEAAU0123@ABU0123@@Z
        988  3DB 0003C260 ??4OnePassStabilizer@videostab@cv@@QAEAAV012@ABV012@@Z
        989  3DC 0004CD50 ??4OrbFeaturesFinder@detail@cv@@QAEAAV012@ABV012@@Z
        990  3DD 0000F260 ??4PCA@cv@@QAEAAV01@ABV01@@Z
        991  3DE 0004CD80 ??4PairwiseSeamFinder@detail@cv@@QAEAAV012@ABV012@@Z
        992  3DF 0004C960 ??4PaniniPortraitProjector@detail@cv@@QAEAAU012@ABU012@@Z
        993  3E0 0004C940 ??4PaniniPortraitWarper@detail@cv@@QAEAAV012@ABV012@@Z
        994  3E1 0004C960 ??4PaniniProjector@detail@cv@@QAEAAU012@ABU012@@Z
        995  3E2 0004C940 ??4PaniniWarper@detail@cv@@QAEAAV012@ABV012@@Z
        996  3E3 0003C250 ??4ParallelLoopBody@cv@@QAEAAV01@ABV01@@Z
        997  3E4 00022470 ??4ParamGrid@ml@cv@@QAEAAV012@ABV012@@Z
        998  3E5 0001AFB0 ??4Params@SimpleBlobDetector@cv@@QAEAAU012@ABU012@@Z
        999  3E6 0004CB90 ??4PlanePortraitWarper@detail@cv@@QAEAAV012@ABV012@@Z
       1000  3E7 0004C980 ??4PlaneProjector@detail@cv@@QAEAAU012@ABU012@@Z
       1001  3E8 0004CB90 ??4PlaneWarper@detail@cv@@QAEAAV012@ABV012@@Z
       1002  3E9 0004CE70 ??4PlaneWarperGpu@detail@cv@@QAEAAV012@ABV012@@Z
       1003  3EA 0004C980 ??4ProjectorBase@detail@cv@@QAEAAU012@ABU012@@Z
       1004  3EB 0003C290 ??4PyrLkOptFlowEstimatorBase@videostab@cv@@QAEAAV012@ABV012@@Z
       1005  3EC 0000F1E0 ??4QuadEdge@Subdiv2D@cv@@QAEAAU012@ABU012@@Z
       1006  3ED 0000F220 ??4RNG@cv@@QAEAAV01@ABV01@@Z
       1007  3EE 0000F240 ??4RNG_MT19937@cv@@QAEAAV01@ABV01@@Z
       1008  3EF 0003C250 ??4RTrees@ml@cv@@QAEAAV012@ABV012@@Z
       1009  3F0 0000F220 ??4Range@cv@@QAEAAV01@ABV01@@Z
       1010  3F1 0000EDF0 ??4RansacParams@videostab@cv@@QAEAAU012@ABU012@@Z
       1011  3F2 0000F100 ??4RotatedRect@cv@@QAEAAV01@ABV01@@Z
       1012  3F3 0003C250 ??4RotationWarper@detail@cv@@QAEAAV012@ABV012@@Z
       1013  3F4 0003C250 ??4SIFT@xfeatures2d@cv@@QAEAAV012@ABV012@@Z
       1014  3F5 0003C250 ??4SURF@xfeatures2d@cv@@QAEAAV012@ABV012@@Z
       1015  3F6 0004CDD0 ??4SURF_CUDA@cuda@cv@@QAEAAV012@ABV012@@Z
       1016  3F7 0000F260 ??4SVD@cv@@QAEAAV01@ABV01@@Z
       1017  3F8 0003C250 ??4SVM@ml@cv@@QAEAAV012@ABV012@@Z
       1018  3F9 0000F570 ??4SavedIndexParams@flann@cv@@QAEAAU012@ABU012@@Z
       1019  3FA 0003C250 ??4SeamFinder@detail@cv@@QAEAAV012@ABV012@@Z
       1020  3FB 0000F570 ??4SearchParams@flann@cv@@QAEAAU012@ABU012@@Z
       1021  3FC 0003C250 ??4ShapeContextDistanceExtractor@cv@@QAEAAV01@ABV01@@Z
       1022  3FD 0003C250 ??4ShapeDistanceExtractor@cv@@QAEAAV01@ABV01@@Z
       1023  3FE 0003C250 ??4ShapeTransformer@cv@@QAEAAV01@ABV01@@Z
       1024  3FF 0000F220 ??4SimilarRects@cv@@QAEAAV01@ABV01@@Z
       1025  400 0003C250 ??4SimpleBlobDetector@cv@@QAEAAV01@ABV01@@Z
       1026  401 0000F290 ??4SparseMat@cv@@QAEAAV01@ABV01@@Z
       1027  402 0000F300 ??4SparseMat@cv@@QAEAAV01@ABVMat@1@@Z
       1028  403 0000F3E0 ??4SparseMatConstIterator@cv@@QAEAAV01@ABV01@@Z
       1029  404 0000F3E0 ??4SparseMatIterator@cv@@QAEAAV01@ABV01@@Z
       1030  405 0003C290 ??4SparsePyrLkOptFlowEstimator@videostab@cv@@QAEAAV012@ABV012@@Z
       1031  406 0004CB90 ??4SphericalPortraitWarper@detail@cv@@QAEAAV012@ABV012@@Z
       1032  407 0004C980 ??4SphericalProjector@detail@cv@@QAEAAU012@ABU012@@Z
       1033  408 0004CB90 ??4SphericalWarper@detail@cv@@QAEAAV012@ABV012@@Z
       1034  409 0004CE70 ??4SphericalWarperGpu@detail@cv@@QAEAAV012@ABV012@@Z
       1035  40A 00022470 ??4Split@DTrees@ml@cv@@QAEAAV0123@ABV0123@@Z
       1036  40B 0003C2B0 ??4StabilizerBase@videostab@cv@@QAEAAV012@ABV012@@Z
       1037  40C 0003C250 ??4StarDetector@xfeatures2d@cv@@QAEAAV012@ABV012@@Z
       1038  40D 0003C250 ??4StatModel@ml@cv@@QAEAAV012@ABV012@@Z
       1039  40E 0003C250 ??4StereoBM@cv@@QAEAAV01@ABV01@@Z
       1040  40F 0003C250 ??4StereoMatcher@cv@@QAEAAV01@ABV01@@Z
       1041  410 0003C250 ??4StereoSGBM@cv@@QAEAAV01@ABV01@@Z
       1042  411 0004C980 ??4StereographicProjector@detail@cv@@QAEAAU012@ABU012@@Z
       1043  412 0004CB90 ??4StereographicWarper@detail@cv@@QAEAAV012@ABV012@@Z
       1044  413 0004CEE0 ??4Stitcher@cv@@QAEAAV01@ABV01@@Z
       1045  414 0004D060 ??4StitcherWrapper@cv@@QAEAAV01@ABV01@@Z
       1046  415 00015AC0 ??4Stream@cuda@cv@@QAEAAV012@ABV012@@Z
       1047  416 0000F400 ??4String@cv@@QAEAAV01@ABV01@@Z
       1048  417 0000F440 ??4String@cv@@QAEAAV01@ABV?$basic_string@DU?$char_traits@D@std@@V?$allocator@D@2@@std@@@Z
       1049  418 0000F480 ??4String@cv@@QAEAAV01@D@Z
       1050  419 0000F4A0 ??4String@cv@@QAEAAV01@PBD@Z
       1051  41A 00015C40 ??4Subdiv2D@cv@@QAEAAV01@ABV01@@Z
       1052  41B 00036580 ??4SuperResolution@superres@cv@@QAEAAV012@ABV012@@Z
       1053  41C 0004D080 ??4SurfFeaturesFinder@detail@cv@@QAEAAV012@ABV012@@Z
       1054  41D 0004D0C0 ??4SurfFeaturesFinderGpu@detail@cv@@QAEAAV012@ABV012@@Z
       1055  41E 0003BDA0 ??4TLSDataContainer@cv@@QAEAAV01@ABV01@@Z
       1056  41F 0003C250 ??4TargetArchs@cuda@cv@@QAEAAV012@ABV012@@Z
       1057  420 0000EDF0 ??4TermCriteria@cv@@QAEAAV01@ABV01@@Z
       1058  421 0003C250 ??4ThinPlateSplineShapeTransformer@cv@@QAEAAV01@ABV01@@Z
       1059  422 0003C250 ??4Tonemap@cv@@QAEAAV01@ABV01@@Z
       1060  423 0003C250 ??4TonemapDrago@cv@@QAEAAV01@ABV01@@Z
       1061  424 0003C250 ??4TonemapDurand@cv@@QAEAAV01@ABV01@@Z
       1062  425 0003C250 ??4TonemapMantiuk@cv@@QAEAAV01@ABV01@@Z
       1063  426 0003C250 ??4TonemapReinhard@cv@@QAEAAV01@ABV01@@Z
       1064  427 0003C250 ??4TrainData@ml@cv@@QAEAAV012@ABV012@@Z
       1065  428 0003C410 ??4TranslationBasedLocalOutlierRejector@videostab@cv@@QAEAAV012@ABV012@@Z
       1066  429 0004C980 ??4TransverseMercatorProjector@detail@cv@@QAEAAU012@ABU012@@Z
       1067  42A 0004CB90 ??4TransverseMercatorWarper@detail@cv@@QAEAAV012@ABV012@@Z
       1068  42B 0003C450 ??4TwoPassStabilizer@videostab@cv@@QAEAAV012@ABV012@@Z
       1069  42C 0000F4E0 ??4UMat@cv@@QAEAAV01@ABV01@@Z
       1070  42D 0000EEF0 ??4UMatData@cv@@QAEAAU01@ABU01@@Z
       1071  42E 0000F570 ??4UMatDataAutoLock@cv@@QAEAAU01@ABU01@@Z
       1072  42F 0000E500 ??4Vertex@Subdiv2D@cv@@QAEAAU012@ABU012@@Z
       1073  430 0001C5C0 ??4VideoCapture@cv@@QAEAAV01@ABV01@@Z
       1074  431 0004CBF0 ??4VideoFileSource@videostab@cv@@QAEAAV012@ABV012@@Z
       1075  432 0001C5C0 ??4VideoWriter@cv@@QAEAAV01@ABV01@@Z
       1076  433 0004CD80 ??4VoronoiSeamFinder@detail@cv@@QAEAAV012@ABV012@@Z
       1077  434 0003C4F0 ??4WeightingDeblurer@videostab@cv@@QAEAAV012@ABV012@@Z
       1078  435 0003C560 ??4WobbleSuppressorBase@videostab@cv@@QAEAAV012@ABV012@@Z
       1079  436 0000F570 ??4WriteStructContext@internal@cv@@QAEAAV012@ABV012@@Z
       1080  437 0000E500 ??4_InputArray@cv@@QAEAAV01@ABV01@@Z
       1081  438 0000E500 ??4_InputOutputArray@cv@@QAEAAV01@ABV01@@Z
       1082  439 0000F580 ??4_IplImage@@QAEAAU0@ABU0@@Z
       1083  43A 0000E500 ??4_OutputArray@cv@@QAEAAV01@ABV01@@Z
       1084  43B 0000F5A0 ??8MatSize@cv@@QBE_NABU01@@Z
       1085  43C 0000F600 ??9MatSize@cv@@QBE_NABU01@@Z
       1086  43D 0000F620 ??AMatConstIterator@cv@@QBEPBEH@Z
       1087  43E 0000F640 ??AMatSize@cv@@QAEAAHH@Z
       1088  43F 0000F640 ??AMatSize@cv@@QBEABHH@Z
       1089  440 0000F640 ??AMatStep@cv@@QAEAAIH@Z
       1090  441 0000F640 ??AMatStep@cv@@QBEABIH@Z
       1091  442 0000F650 ??AString@cv@@QBEDH@Z
       1092  443 0000F650 ??AString@cv@@QBEDI@Z
       1093  444 0000F660 ??BFileNode@cv@@QBE?AV?$basic_string@DU?$char_traits@D@std@@V?$allocator@D@2@@std@@XZ
       1094  445 0000F740 ??BFileNode@cv@@QBE?AVString@1@XZ
       1095  446 0000F7B0 ??BFileNode@cv@@QBEHXZ
       1096  447 0000F7D0 ??BFileNode@cv@@QBEMXZ
       1097  448 0000F7F0 ??BFileNode@cv@@QBENXZ
       1098  449 0000F820 ??BMatExpr@cv@@QBE?AVMat@1@XZ
       1099  44A 00012290 ??BMatSize@cv@@QBEPBHXZ
       1100  44B 0000FA60 ??BMatStep@cv@@QBEIXZ
       1101  44C 0000F890 ??BRNG@cv@@QAECXZ
       1102  44D 0000F890 ??BRNG@cv@@QAEEXZ
       1103  44E 0000F8C0 ??BRNG@cv@@QAEFXZ
       1104  44F 0000F8C0 ??BRNG@cv@@QAEGXZ
       1105  450 00012750 ??BRNG@cv@@QAEHXZ
       1106  451 00012750 ??BRNG@cv@@QAEIXZ
       1107  452 0000F8F0 ??BRNG@cv@@QAEMXZ
       1108  453 0000F950 ??BRNG@cv@@QAENXZ
       1109  454 0000F9D0 ??BString@cv@@QBE?AV?$basic_string@DU?$char_traits@D@std@@V?$allocator@D@2@@std@@XZ
       1110  455 0000FA40 ??CFileNodeIterator@cv@@QBE?AVFileNode@1@XZ
       1111  456 0000FA60 ??DFileNode@cv@@QAEPAUCvFileNode@@XZ
       1112  457 0000FA60 ??DFileNode@cv@@QBEPBUCvFileNode@@XZ
       1113  458 0000FA40 ??DFileNodeIterator@cv@@QBE?AVFileNode@1@XZ
       1114  459 002DA2D0 ??DFileStorage@cv@@QAEPAUCvFileStorage@@XZ
       1115  45A 002DA2D0 ??DFileStorage@cv@@QBEPBUCvFileStorage@@XZ
       1116  45B 00012290 ??DLineIterator@cv@@QAEPAEXZ
       1117  45C 002DA2D0 ??DMatConstIterator@cv@@QBEPBEXZ
       1118  45D 00015CA0 ??ELineIterator@cv@@QAE?AV01@H@Z
       1119  45E 00015CF0 ??ELineIterator@cv@@QAEAAV01@XZ
       1120  45F 0000FA70 ??EMatConstIterator@cv@@QAE?AV01@H@Z
       1121  460 0000FAC0 ??EMatConstIterator@cv@@QAEAAV01@XZ
       1122  461 0000FAF0 ??ESparseMatConstIterator@cv@@QAE?AV01@H@Z
       1123  462 0000FAF0 ??ESparseMatIterator@cv@@QAE?AV01@H@Z
       1124  463 0000FB20 ??ESparseMatIterator@cv@@QAEAAV01@XZ
       1125  464 0000FB30 ??FMatConstIterator@cv@@QAE?AV01@H@Z
       1126  465 0000FB90 ??FMatConstIterator@cv@@QAEAAV01@XZ
       1127  466 0000FED0 ??MDMatch@cv@@QBE_NABV01@@Z
       1128  467 0004D150 ??MGraphEdge@detail@cv@@QBE_NABU012@@Z
       1129  468 0004D170 ??OGraphEdge@detail@cv@@QBE_NABU012@@Z
       1130  469 0004D190 ??REstimator@detail@cv@@QAE_NABV?$vector@UImageFeatures@detail@cv@@V?$allocator@UImageFeatures@detail@cv@@@std@@@std@@ABV?$vector@UMatchesInfo@detail@cv@@V?$allocator@UMatchesInfo@detail@cv@@@std@@@4@AAV?$vector@UCameraParams@detail@cv@@V?$allocator@UCameraParams@detail@cv@@@std@@@4@@Z
       1131  46A 0004D1A0 ??RFeaturesMatcher@detail@cv@@QAEXABUImageFeatures@12@0AAUMatchesInfo@12@@Z
       1132  46B 0001F500 ??RGpuMat@cuda@cv@@QBE?AV012@V?$Rect_@H@2@@Z
       1133  46C 0001F580 ??RGpuMat@cuda@cv@@QBE?AV012@VRange@2@0@Z
       1134  46D 0000FEF0 ??RMat@cv@@QBE?AV01@ABV?$Rect_@H@1@@Z
       1135  46E 0000FF50 ??RMat@cv@@QBE?AV01@PBVRange@1@@Z
       1136  46F 0000FFB0 ??RMat@cv@@QBE?AV01@VRange@1@0@Z
       1137  470 00010010 ??RMatSize@cv@@QBE?AV?$Size_@H@1@XZ
       1138  471 00010030 ??RRNG@cv@@QAEII@Z
       1139  472 00012750 ??RRNG@cv@@QAEIXZ
       1140  473 00015D20 ??RSimilarRects@cv@@QBE_NABV?$Rect_@H@1@0@Z
       1141  474 00010080 ??RUMat@cv@@QBE?AV01@ABV?$Rect_@H@1@@Z
       1142  475 000100E0 ??RUMat@cv@@QBE?AV01@PBVRange@1@@Z
       1143  476 00010140 ??RUMat@cv@@QBE?AV01@VRange@1@0@Z
       1144  477 000101A0 ??YMatConstIterator@cv@@QAEAAV01@H@Z
       1145  478 000101E0 ??YString@cv@@QAEAAV01@ABV01@@Z
       1146  479 00010270 ??YString@cv@@QAEAAV01@ABV?$basic_string@DU?$char_traits@D@std@@V?$allocator@D@2@@std@@@Z
       1147  47A 00010300 ??YString@cv@@QAEAAV01@D@Z
       1148  47B 00010390 ??YString@cv@@QAEAAV01@PBD@Z
       1149  47C 00010420 ??ZMatConstIterator@cv@@QAEAAV01@H@Z
       1150  47D 0078752C ??_7?$RotationWarperBase@UCompressedRectilinearPortraitProjector@detail@cv@@@detail@cv@@6B@
       1151  47E 007874DC ??_7?$RotationWarperBase@UCompressedRectilinearProjector@detail@cv@@@detail@cv@@6B@
       1152  47F 0078778C ??_7?$RotationWarperBase@UCylindricalPortraitProjector@detail@cv@@@detail@cv@@6B@
       1153  480 007873EC ??_7?$RotationWarperBase@UCylindricalProjector@detail@cv@@@detail@cv@@6B@
       1154  481 0078743C ??_7?$RotationWarperBase@UFisheyeProjector@detail@cv@@@detail@cv@@6B@
       1155  482 0078761C ??_7?$RotationWarperBase@UMercatorProjector@detail@cv@@@detail@cv@@6B@
       1156  483 007875CC ??_7?$RotationWarperBase@UPaniniPortraitProjector@detail@cv@@@detail@cv@@6B@
       1157  484 0078757C ??_7?$RotationWarperBase@UPaniniProjector@detail@cv@@@detail@cv@@6B@
       1158  485 007877DC ??_7?$RotationWarperBase@UPlanePortraitProjector@detail@cv@@@detail@cv@@6B@
       1159  486 00787344 ??_7?$RotationWarperBase@UPlaneProjector@detail@cv@@@detail@cv@@6B@
       1160  487 0078773C ??_7?$RotationWarperBase@USphericalPortraitProjector@detail@cv@@@detail@cv@@6B@
       1161  488 0078739C ??_7?$RotationWarperBase@USphericalProjector@detail@cv@@@detail@cv@@6B@
       1162  489 0078748C ??_7?$RotationWarperBase@UStereographicProjector@detail@cv@@@detail@cv@@6B@
       1163  48A 0078766C ??_7?$RotationWarperBase@UTransverseMercatorProjector@detail@cv@@@detail@cv@@6B@
       1164  48B 00784DE8 ??_7AKAZE@cv@@6BAlgorithm@1@@
       1165  48C 00784D8C ??_7AKAZE@cv@@6BFeature2D@1@@
       1166  48D 00785D84 ??_7ANN_MLP@ml@cv@@6B@
       1167  48E 00786C50 ??_7AffineTransformer@cv@@6B@
       1168  48F 00784C20 ??_7AgastFeatureDetector@cv@@6BAlgorithm@1@@
       1169  490 00784BE4 ??_7AgastFeatureDetector@cv@@6BFeature2D@1@@
       1170  491 00784094 ??_7Algorithm@cv@@6B@
       1171  492 00786228 ??_7AlignExposures@cv@@6B@
       1172  493 0078624C ??_7AlignMTB@cv@@6B@
       1173  494 00785174 ??_7Allocator@GpuMat@cuda@cv@@6B@
       1174  495 00784E48 ??_7BFMatcher@cv@@6B@
       1175  496 00784EE0 ??_7BOWImgDescriptorExtractor@cv@@6B@
       1176  497 00784ECC ??_7BOWKMeansTrainer@cv@@6B@
       1177  498 00784EB8 ??_7BOWTrainer@cv@@6B@
       1178  499 00784A54 ??_7BRISK@cv@@6BAlgorithm@1@@
       1179  49A 00784A30 ??_7BRISK@cv@@6BFeature2D@1@@
       1180  49B 00785494 ??_7BackgroundSubtractor@cv@@6B@
       1181  49C 007872A8 ??_7BackgroundSubtractorGMG@bgsegm@cv@@6B@
       1182  49D 00785544 ??_7BackgroundSubtractorKNN@cv@@6B@
       1183  49E 007854BC ??_7BackgroundSubtractorMOG2@cv@@6B@
       1184  49F 00787260 ??_7BackgroundSubtractorMOG@bgsegm@cv@@6B@
       1185  4A0 007843F0 ??_7BaseCascadeClassifier@cv@@6B@
       1186  4A1 00786EDC ??_7BasicFaceRecognizer@face@cv@@6B@
       1187  4A2 0078787C ??_7BestOf2NearestMatcher@detail@cv@@6B@
       1188  4A3 0078788C ??_7BestOf2NearestRangeMatcher@detail@cv@@6B@
       1189  4A4 00787A84 ??_7Blender@detail@cv@@6B@
       1190  4A5 00787A20 ??_7BlocksGainCompensator@detail@cv@@6B@
       1191  4A6 00785CD8 ??_7Boost@ml@cv@@6B@
       1192  4A7 0078713C ??_7BriefDescriptorExtractor@xfeatures2d@cv@@6BAlgorithm@2@@
       1193  4A8 00787118 ??_7BriefDescriptorExtractor@xfeatures2d@cv@@6BFeature2D@2@@
       1194  4A9 007864EC ??_7BroxOpticalFlow@superres@cv@@6B012@@
       1195  4AA 00786520 ??_7BroxOpticalFlow@superres@cv@@6BDenseOpticalFlowExt@12@@
       1196  4AB 007878B4 ??_7BundleAdjusterBase@detail@cv@@6B@
       1197  4AC 007879D4 ??_7BundleAdjusterRay@detail@cv@@6B@
       1198  4AD 007879B8 ??_7BundleAdjusterReproj@detail@cv@@6B@
       1199  4AE 0078437C ??_7CLAHE@cv@@6B@
       1200  4AF 00786298 ??_7CalibrateCRF@cv@@6B@
       1201  4B0 007862BC ??_7CalibrateDebevec@cv@@6B@
       1202  4B1 007862F8 ??_7CalibrateRobertson@cv@@6B@
       1203  4B2 00785124 ??_7Callback@ERFilter@text@cv@@6B@
       1204  4B3 00786D30 ??_7ChiHistogramCostExtractor@cv@@6B@
       1205  4B4 00786998 ??_7ColorAverageInpainter@videostab@cv@@6B@
       1206  4B5 007869D4 ??_7ColorInpainter@videostab@cv@@6B@
       1207  4B6 00787554 ??_7CompressedRectilinearPortraitWarper@detail@cv@@6B@
       1208  4B7 00787504 ??_7CompressedRectilinearWarper@detail@cv@@6B@
       1209  4B8 00784158 ??_7ConjGradSolver@cv@@6B@
       1210  4B9 00786920 ??_7ConsistentMosaicInpainter@videostab@cv@@6B@
       1211  4BA 007877B4 ??_7CylindricalPortraitWarper@detail@cv@@6B@
       1212  4BB 00787414 ??_7CylindricalWarper@detail@cv@@6B@
       1213  4BC 00787714 ??_7CylindricalWarperGpu@detail@cv@@6B@
       1214  4BD 00787238 ??_7DAISY@xfeatures2d@cv@@6BAlgorithm@2@@
       1215  4BE 007871FC ??_7DAISY@xfeatures2d@cv@@6BFeature2D@2@@
       1216  4BF 00785B94 ??_7DTrees@ml@cv@@6B@
       1217  4C0 00786A10 ??_7DeblurerBase@videostab@cv@@6B@
       1218  4C1 007853E4 ??_7DenseOpticalFlow@cv@@6B@
       1219  4C2 007863E4 ??_7DenseOpticalFlowExt@superres@cv@@6B@
       1220  4C3 00784E10 ??_7DescriptorMatcher@cv@@6B@
       1221  4C4 00784478 ??_7DetectionBasedTracker@cv@@6B@
       1222  4C5 0078411C ??_7DownhillSolver@cv@@6B@
       1223  4C6 00787A6C ??_7DpSeamFinder@detail@cv@@6B@
       1224  4C7 0078540C ??_7DualTVL1OpticalFlow@cv@@6B@
       1225  4C8 00786478 ??_7DualTVL1OpticalFlow@superres@cv@@6B012@@
       1226  4C9 007864BC ??_7DualTVL1OpticalFlow@superres@cv@@6BDenseOpticalFlowExt@12@@
       1227  4CA 00785B24 ??_7EM@ml@cv@@6B@
       1228  4CB 00786CF4 ??_7EMDHistogramCostExtractor@cv@@6B@
       1229  4CC 00786D64 ??_7EMDL1HistogramCostExtractor@cv@@6B@
       1230  4CD 00785130 ??_7ERFilter@text@cv@@6B@
       1231  4CE 0078789C ??_7Estimator@detail@cv@@6B@
       1232  4CF 00784060 ??_7Exception@cv@@6B@
       1233  4D0 007879F0 ??_7ExposureCompensator@detail@cv@@6B@
       1234  4D1 007870A4 ??_7FREAK@xfeatures2d@cv@@6BAlgorithm@2@@
       1235  4D2 00787080 ??_7FREAK@xfeatures2d@cv@@6BFeature2D@2@@
       1236  4D3 00786E94 ??_7FaceRecognizer@face@cv@@6B@
       1237  4D4 0078640C ??_7FarnebackOpticalFlow@superres@cv@@6B012@@
       1238  4D5 00786448 ??_7FarnebackOpticalFlow@superres@cv@@6BDenseOpticalFlowExt@12@@
       1239  4D6 00784BBC ??_7FastFeatureDetector@cv@@6BAlgorithm@1@@
       1240  4D7 00784B80 ??_7FastFeatureDetector@cv@@6BFeature2D@1@@
       1241  4D8 00787A98 ??_7FeatherBlender@detail@cv@@6B@
       1242  4D9 007849E4 ??_7Feature2D@cv@@6B01@@
       1243  4DA 00784A08 ??_7Feature2D@cv@@6BAlgorithm@1@@
       1244  4DB 0078782C ??_7FeaturesFinder@detail@cv@@6B@
       1245  4DC 0078786C ??_7FeaturesMatcher@detail@cv@@6B@
       1246  4DD 00784048 ??_7FileStorage@cv@@6B@
       1247  4DE 00787464 ??_7FisheyeWarper@detail@cv@@6B@
       1248  4DF 00784E80 ??_7FlannBasedMatcher@cv@@6B@
       1249  4E0 0078406C ??_7Formatted@cv@@6B@
       1250  4E1 0078407C ??_7Formatter@cv@@6B@
       1251  4E2 00786550 ??_7FrameSource@superres@cv@@6B@
       1252  4E3 007840D0 ??_7Function@MinProblemSolver@cv@@6B@
       1253  4E4 00784C9C ??_7GFTTDetector@cv@@6BAlgorithm@1@@
       1254  4E5 00784C48 ??_7GFTTDetector@cv@@6BFeature2D@1@@
       1255  4E6 00787A10 ??_7GainCompensator@detail@cv@@6B@
       1256  4E7 007867FC ??_7GaussianMotionFilter@videostab@cv@@6B@
       1257  4E8 00784204 ??_7GeneralizedHough@cv@@6B@
       1258  4E9 0078425C ??_7GeneralizedHoughBallard@cv@@6B@
       1259  4EA 007842C4 ??_7GeneralizedHoughGuil@cv@@6B@
       1260  4EB 00787A78 ??_7GraphCutSeamFinder@detail@cv@@6B@
       1261  4EC 00784438 ??_7HOGDescriptor@cv@@6B@
       1262  4ED 00786E48 ??_7HausdorffDistanceExtractor@cv@@6B@
       1263  4EE 00786C84 ??_7HistogramCostExtractor@cv@@6B@
       1264  4EF 007878A8 ??_7HomographyBasedEstimator@detail@cv@@6B@
       1265  4F0 00786604 ??_7IDenseOptFlowEstimator@videostab@cv@@6B@
       1266  4F1 00786818 ??_7IFrameSource@videostab@cv@@6B@
       1267  4F2 00786848 ??_7ILog@videostab@cv@@6B@
       1268  4F3 007867D4 ??_7IMotionStabilizer@videostab@cv@@6B@
       1269  4F4 007866FC ??_7IOutlierRejector@videostab@cv@@6B@
       1270  4F5 007865F8 ??_7ISparseOptFlowEstimator@videostab@cv@@6B@
       1271  4F6 0078675C ??_7ImageMotionEstimatorBase@videostab@cv@@6B@
       1272  4F7 007849C4 ??_7Index@flann@cv@@6B@
       1273  4F8 0078686C ??_7InpainterBase@videostab@cv@@6B@
       1274  4F9 007868E4 ??_7InpaintingPipeline@videostab@cv@@6B@
       1275  4FA 00784D64 ??_7KAZE@cv@@6BAlgorithm@1@@
       1276  4FB 00784D10 ??_7KAZE@cv@@6BFeature2D@1@@
       1277  4FC 00785A00 ??_7KNearest@ml@cv@@6B@
       1278  4FD 00785A60 ??_7Kernel@SVM@ml@cv@@6B@
       1279  4FE 007867C0 ??_7KeypointBasedMotionEstimator@videostab@cv@@6B@
       1280  4FF 007871D4 ??_7LATCH@xfeatures2d@cv@@6BAlgorithm@2@@
       1281  500 007871B0 ??_7LATCH@xfeatures2d@cv@@6BFeature2D@2@@
       1282  501 00786F48 ??_7LBPHFaceRecognizer@face@cv@@6B@
       1283  502 00785244 ??_7LSVMDetector@lsvm@cv@@6B@
       1284  503 00787188 ??_7LUCID@xfeatures2d@cv@@6BAlgorithm@2@@
       1285  504 00787164 ??_7LUCID@xfeatures2d@cv@@6BFeature2D@2@@
       1286  505 007843B4 ??_7LineSegmentDetector@cv@@6B@
       1287  506 00786860 ??_7LogToStdout@videostab@cv@@6B@
       1288  507 00785E18 ??_7LogisticRegression@ml@cv@@6B@
       1289  508 0078680C ??_7LpMotionStabilizer@videostab@cv@@6B@
       1290  509 00784B58 ??_7MSER@cv@@6BAlgorithm@1@@
       1291  50A 00784B10 ??_7MSER@cv@@6BFeature2D@1@@
       1292  50B 007843E0 ??_7MaskGenerator@BaseCascadeClassifier@cv@@6B@
       1293  50C 00783E30 ??_7MatAllocator@cv@@6B@
       1294  50D 00783E5C ??_7MatOp@cv@@6B@
       1295  50E 00787644 ??_7MercatorWarper@detail@cv@@6B@
       1296  50F 00786354 ??_7MergeDebevec@cv@@6B@
       1297  510 00786330 ??_7MergeExposures@cv@@6B@
       1298  511 0078637C ??_7MergeMertens@cv@@6B@
       1299  512 007863BC ??_7MergeRobertson@cv@@6B@
       1300  513 007840E8 ??_7MinProblemSolver@cv@@6B@
       1301  514 00786B20 ??_7MoreAccurateMotionWobbleSuppressor@videostab@cv@@6B@
       1302  515 00786AEC ??_7MoreAccurateMotionWobbleSuppressorBase@videostab@cv@@6B@
       1303  516 00786720 ??_7MotionEstimatorBase@videostab@cv@@6B@
       1304  517 00786748 ??_7MotionEstimatorL1@videostab@cv@@6B@
       1305  518 00786734 ??_7MotionEstimatorRansacL2@videostab@cv@@6B@
       1306  519 007867EC ??_7MotionFilterBase@videostab@cv@@6B@
       1307  51A 0078695C ??_7MotionInpainter@videostab@cv@@6B@
       1308  51B 007867E0 ??_7MotionStabilizationPipeline@videostab@cv@@6B@
       1309  51C 00787AAC ??_7MultiBandBlender@detail@cv@@6B@
       1310  51D 00787A00 ??_7NoExposureCompensator@detail@cv@@6B@
       1311  51E 00787A3C ??_7NoSeamFinder@detail@cv@@6B@
       1312  51F 00786CB8 ??_7NormHistogramCostExtractor@cv@@6B@
       1313  520 007859C0 ??_7NormalBayesClassifier@ml@cv@@6B@
       1314  521 00786A3C ??_7NullDeblurer@videostab@cv@@6B@
       1315  522 00786828 ??_7NullFrameSource@videostab@cv@@6B@
       1316  523 007868A8 ??_7NullInpainter@videostab@cv@@6B@
       1317  524 00786854 ??_7NullLog@videostab@cv@@6B@
       1318  525 00786708 ??_7NullOutlierRejector@videostab@cv@@6B@
       1319  526 00786AC0 ??_7NullWobbleSuppressor@videostab@cv@@6B@
       1320  527 00784AE8 ??_7ORB@cv@@6BAlgorithm@1@@
       1321  528 00784A7C ??_7ORB@cv@@6BFeature2D@1@@
       1322  529 00786B84 ??_7OnePassStabilizer@videostab@cv@@6BIFrameSource@12@@
       1323  52A 00786B6C ??_7OnePassStabilizer@videostab@cv@@6BStabilizerBase@12@@
       1324  52B 0078784C ??_7OrbFeaturesFinder@detail@cv@@6B@
       1325  52C 00787A48 ??_7PairwiseSeamFinder@detail@cv@@6B@
       1326  52D 007875F4 ??_7PaniniPortraitWarper@detail@cv@@6B@
       1327  52E 007875A4 ??_7PaniniWarper@detail@cv@@6B@
       1328  52F 007840B4 ??_7ParallelLoopBody@cv@@6B@
       1329  530 00787804 ??_7PlanePortraitWarper@detail@cv@@6B@
       1330  531 0078736C ??_7PlaneWarper@detail@cv@@6B@
       1331  532 007876BC ??_7PlaneWarperGpu@detail@cv@@6B@
       1332  533 00786610 ??_7PyrLkOptFlowEstimatorBase@videostab@cv@@6B@
       1333  534 00785C28 ??_7RTrees@ml@cv@@6B@
       1334  535 00787320 ??_7RotationWarper@detail@cv@@6B@
       1335  536 00786FE4 ??_7SIFT@xfeatures2d@cv@@6BAlgorithm@2@@
       1336  537 00786FC0 ??_7SIFT@xfeatures2d@cv@@6BFeature2D@2@@
       1337  538 00787058 ??_7SURF@xfeatures2d@cv@@6BAlgorithm@2@@
       1338  539 0078700C ??_7SURF@xfeatures2d@cv@@6BFeature2D@2@@
       1339  53A 00785A88 ??_7SVM@ml@cv@@6B@
       1340  53B 00787A30 ??_7SeamFinder@detail@cv@@6B@
       1341  53C 00786DBC ??_7ShapeContextDistanceExtractor@cv@@6B@
       1342  53D 00786D98 ??_7ShapeDistanceExtractor@cv@@6B@
       1343  53E 00786BF0 ??_7ShapeTransformer@cv@@6B@
       1344  53F 00784CE8 ??_7SimpleBlobDetector@cv@@6BAlgorithm@1@@
       1345  540 00784CC4 ??_7SimpleBlobDetector@cv@@6BFeature2D@1@@
       1346  541 00786640 ??_7SparsePyrLkOptFlowEstimator@videostab@cv@@6BISparseOptFlowEstimator@12@@
       1347  542 00786628 ??_7SparsePyrLkOptFlowEstimator@videostab@cv@@6BPyrLkOptFlowEstimatorBase@12@@
       1348  543 00787764 ??_7SphericalPortraitWarper@detail@cv@@6B@
       1349  544 007873C4 ??_7SphericalWarper@detail@cv@@6B@
       1350  545 007876EC ??_7SphericalWarperGpu@detail@cv@@6B@
       1351  546 00786B54 ??_7StabilizerBase@videostab@cv@@6B@
       1352  547 007870F0 ??_7StarDetector@xfeatures2d@cv@@6BAlgorithm@2@@
       1353  548 007870CC ??_7StarDetector@xfeatures2d@cv@@6BFeature2D@2@@
       1354  549 00785984 ??_7StatModel@ml@cv@@6B@
       1355  54A 00785FD8 ??_7StereoBM@cv@@6B@
       1356  54B 00785F84 ??_7StereoMatcher@cv@@6B@
       1357  54C 0078606C ??_7StereoSGBM@cv@@6B@
       1358  54D 007874B4 ??_7StereographicWarper@detail@cv@@6B@
       1359  54E 00786560 ??_7SuperResolution@superres@cv@@6BAlgorithm@2@@
       1360  54F 007865DC ??_7SuperResolution@superres@cv@@6BFrameSource@12@@
       1361  550 0078783C ??_7SurfFeaturesFinder@detail@cv@@6B@
       1362  551 0078785C ??_7SurfFeaturesFinderGpu@detail@cv@@6B@
       1363  552 007840C0 ??_7TLSDataContainer@cv@@6B@
       1364  553 00786C1C ??_7ThinPlateSplineShapeTransformer@cv@@6B@
       1365  554 007860F4 ??_7Tonemap@cv@@6B@
       1366  555 00786120 ??_7TonemapDrago@cv@@6B@
       1367  556 0078615C ??_7TonemapDurand@cv@@6B@
       1368  557 007861EC ??_7TonemapMantiuk@cv@@6B@
       1369  558 007861A8 ??_7TonemapReinhard@cv@@6B@
       1370  559 007858F4 ??_7TrainData@ml@cv@@6B@
       1371  55A 00786714 ??_7TranslationBasedLocalOutlierRejector@videostab@cv@@6B@
       1372  55B 00787694 ??_7TransverseMercatorWarper@detail@cv@@6B@
       1373  55C 00786BAC ??_7TwoPassStabilizer@videostab@cv@@6BIFrameSource@12@@
       1374  55D 00786B94 ??_7TwoPassStabilizer@videostab@cv@@6BStabilizerBase@12@@
       1375  55E 007850CC ??_7VideoCapture@cv@@6B@
       1376  55F 00786838 ??_7VideoFileSource@videostab@cv@@6B@
       1377  560 00785100 ??_7VideoWriter@cv@@6B@
       1378  561 00787A58 ??_7VoronoiSeamFinder@detail@cv@@6B@
       1379  562 00786A68 ??_7WeightingDeblurer@videostab@cv@@6B@
       1380  563 00786A94 ??_7WobbleSuppressorBase@videostab@cv@@6B@
       1381  564 00784E04 ??_8AKAZE@cv@@7B@
       1382  565 00784C3C ??_8AgastFeatureDetector@cv@@7B@
       1383  566 00784A70 ??_8BRISK@cv@@7B@
       1384  567 00787158 ??_8BriefDescriptorExtractor@xfeatures2d@cv@@7B@
       1385  568 00786544 ??_8BroxOpticalFlow@superres@cv@@7B@
       1386  569 00787254 ??_8DAISY@xfeatures2d@cv@@7B@
       1387  56A 007864E0 ??_8DualTVL1OpticalFlow@superres@cv@@7B@
       1388  56B 007870C0 ??_8FREAK@xfeatures2d@cv@@7B@
       1389  56C 0078646C ??_8FarnebackOpticalFlow@superres@cv@@7B@
       1390  56D 00784BD8 ??_8FastFeatureDetector@cv@@7B@
       1391  56E 00784A24 ??_8Feature2D@cv@@7B@
       1392  56F 00784CB8 ??_8GFTTDetector@cv@@7B@
       1393  570 00784D80 ??_8KAZE@cv@@7B@
       1394  571 007871F0 ??_8LATCH@xfeatures2d@cv@@7B@
       1395  572 007871A4 ??_8LUCID@xfeatures2d@cv@@7B@
       1396  573 00784B74 ??_8MSER@cv@@7B@
       1397  574 00784B04 ??_8ORB@cv@@7B@
       1398  575 00787000 ??_8SIFT@xfeatures2d@cv@@7B@
       1399  576 00787074 ??_8SURF@xfeatures2d@cv@@7B@
       1400  577 00784D04 ??_8SimpleBlobDetector@cv@@7B@
       1401  578 0078710C ??_8StarDetector@xfeatures2d@cv@@7B@
       1402  579 00043660 ??_DAKAZE@cv@@QAEXXZ
       1403  57A 00043660 ??_DAgastFeatureDetector@cv@@QAEXXZ
       1404  57B 00043660 ??_DBRISK@cv@@QAEXXZ
       1405  57C 00043660 ??_DBriefDescriptorExtractor@xfeatures2d@cv@@QAEXXZ
       1406  57D 000365B0 ??_DBroxOpticalFlow@superres@cv@@QAEXXZ
       1407  57E 00043660 ??_DDAISY@xfeatures2d@cv@@QAEXXZ
       1408  57F 000365B0 ??_DDualTVL1OpticalFlow@superres@cv@@QAEXXZ
       1409  580 00043660 ??_DFREAK@xfeatures2d@cv@@QAEXXZ
       1410  581 000365B0 ??_DFarnebackOpticalFlow@superres@cv@@QAEXXZ
       1411  582 00043660 ??_DFastFeatureDetector@cv@@QAEXXZ
       1412  583 0001AFF0 ??_DFeature2D@cv@@QAEXXZ
       1413  584 00043660 ??_DGFTTDetector@cv@@QAEXXZ
       1414  585 00043660 ??_DKAZE@cv@@QAEXXZ
       1415  586 00043660 ??_DLATCH@xfeatures2d@cv@@QAEXXZ
       1416  587 00043660 ??_DLUCID@xfeatures2d@cv@@QAEXXZ
       1417  588 00043660 ??_DMSER@cv@@QAEXXZ
       1418  589 00043660 ??_DORB@cv@@QAEXXZ
       1419  58A 00043660 ??_DSIFT@xfeatures2d@cv@@QAEXXZ
       1420  58B 00043660 ??_DSURF@xfeatures2d@cv@@QAEXXZ
       1421  58C 00043660 ??_DSimpleBlobDetector@cv@@QAEXXZ
       1422  58D 00043660 ??_DStarDetector@xfeatures2d@cv@@QAEXXZ
       1423  58E 0001B370 ??_FAutotunedIndexParams@flann@cv@@QAEXXZ
       1424  58F 0001B3A0 ??_FBFMatcher@cv@@QAEXXZ
       1425  590 0004E190 ??_FBestOf2NearestMatcher@detail@cv@@QAEXXZ
       1426  591 0004E1B0 ??_FBestOf2NearestRangeMatcher@detail@cv@@QAEXXZ
       1427  592 0004E1D0 ??_FBlocksGainCompensator@detail@cv@@QAEXXZ
       1428  593 0003DA90 ??_FColorInpainter@videostab@cv@@QAEXXZ
       1429  594 0001B3B0 ??_FCompositeIndexParams@flann@cv@@QAEXXZ
       1430  595 0004E250 ??_FDisjointSets@detail@cv@@QAEXXZ
       1431  596 0004E260 ??_FDpSeamFinder@detail@cv@@QAEXXZ
       1432  597 0001E0D0 ??_FERStat@text@cv@@QAEXXZ
       1433  598 0001F650 ??_FEvent@cuda@cv@@QAEXXZ
       1434  599 0004E270 ??_FFeatherBlender@detail@cv@@QAEXXZ
       1435  59A 0004E280 ??_FFeaturesMatcher@detail@cv@@QAEXXZ
       1436  59B 0001B3D0 ??_FFlannBasedMatcher@cv@@QAEXXZ
       1437  59C 0003DB30 ??_FGaussianMotionFilter@videostab@cv@@QAEXXZ
       1438  59D 0001F660 ??_FGpuMat@cuda@cv@@QAEXXZ
       1439  59E 0004E290 ??_FGraph@detail@cv@@QAEXXZ
       1440  59F 0004E2F0 ??_FGraphCutSeamFinder@detail@cv@@QAEXXZ
       1441  5A0 0001B4E0 ??_FHierarchicalClusteringIndexParams@flann@cv@@QAEXXZ
       1442  5A1 0004E310 ??_FHomographyBasedEstimator@detail@cv@@QAEXXZ
       1443  5A2 0001F6B0 ??_FHostMem@cuda@cv@@QAEXXZ
       1444  5A3 0001B4F0 ??_FKDTreeIndexParams@flann@cv@@QAEXXZ
       1445  5A4 0001B500 ??_FKMeansIndexParams@flann@cv@@QAEXXZ
       1446  5A5 000108C0 ??_FLDA@cv@@QAEXXZ
       1447  5A6 0003DBC0 ??_FLpMotionStabilizer@videostab@cv@@QAEXXZ
       1448  5A7 0003DBD0 ??_FMotionEstimatorL1@videostab@cv@@QAEXXZ
       1449  5A8 0003DBE0 ??_FMotionEstimatorRansacL2@videostab@cv@@QAEXXZ
       1450  5A9 0004E370 ??_FMultiBandBlender@detail@cv@@QAEXXZ
       1451  5AA 0004E380 ??_FOrbFeaturesFinder@detail@cv@@QAEXXZ
       1452  5AB 0004E3B0 ??_FPlaneWarper@detail@cv@@QAEXXZ
       1453  5AC 0004E420 ??_FPlaneWarperGpu@detail@cv@@QAEXXZ
       1454  5AD 0001B520 ??_FSearchParams@flann@cv@@QAEXXZ
       1455  5AE 0004E430 ??_FSurfFeaturesFinder@detail@cv@@QAEXXZ
       1456  5AF 0004E450 ??_FSurfFeaturesFinderGpu@detail@cv@@QAEXXZ
       1457  5B0 000108D0 ??_FUMat@cv@@QAEXXZ
       1458  5B1 00022490 ?Local@KernelArg@ocl@cv@@SA?AV123@XZ
       1459  5B2 000224B0 ?PtrReadOnly@KernelArg@ocl@cv@@SA?AV123@ABVUMat@3@@Z
       1460  5B3 000224D0 ?PtrReadWrite@KernelArg@ocl@cv@@SA?AV123@ABVUMat@3@@Z
       1461  5B4 000224F0 ?PtrWriteOnly@KernelArg@ocl@cv@@SA?AV123@ABVUMat@3@@Z
       1462  5B5 00022510 ?ReadOnly@KernelArg@ocl@cv@@SA?AV123@ABVUMat@3@HH@Z
       1463  5B6 00022530 ?ReadOnlyNoSize@KernelArg@ocl@cv@@SA?AV123@ABVUMat@3@HH@Z
       1464  5B7 00022560 ?ReadWrite@KernelArg@ocl@cv@@SA?AV123@ABVUMat@3@HH@Z
       1465  5B8 00022580 ?ReadWriteNoSize@KernelArg@ocl@cv@@SA?AV123@ABVUMat@3@HH@Z
       1466  5B9 000225B0 ?WriteOnly@KernelArg@ocl@cv@@SA?AV123@ABVUMat@3@HH@Z
       1467  5BA 000225D0 ?WriteOnlyNoSize@KernelArg@ocl@cv@@SA?AV123@ABVUMat@3@HH@Z
       1468  5BB 00010E70 ?addref@Mat@cv@@QAEXXZ
       1469  5BC 00010E90 ?addref@SparseMat@cv@@QAEXXZ
       1470  5BD 00010EB0 ?addref@UMat@cv@@QAEXXZ
       1471  5BE 00010ED0 ?all@Range@cv@@SA?AV12@XZ
       1472  5BF 0004EAA0 ?apply@NoExposureCompensator@detail@cv@@UAEXHV?$Point_@H@3@ABV_InputOutputArray@3@ABV_InputArray@3@@Z
       1473  5C0 0001F960 ?assignTo@GpuMat@cuda@cv@@QBEXAAV123@H@Z
       1474  5C1 00011140 ?assignTo@Mat@cv@@QBEXAAV12@H@Z
       1475  5C2 000111A0 ?assignTo@SparseMat@cv@@QBEXAAV12@H@Z
       1476  5C3 000111E0 ?assignTo@UMat@cv@@QBEXAAV12@H@Z
       1477  5C4 00011240 ?begin@FileNode@cv@@QBE?AVFileNodeIterator@2@XZ
       1478  5C5 00011260 ?begin@SparseMat@cv@@QAE?AVSparseMatIterator@2@XZ
       1479  5C6 00011260 ?begin@SparseMat@cv@@QBE?AVSparseMatConstIterator@2@XZ
       1480  5C7 00012290 ?begin@String@cv@@QBEPBDXZ
       1481  5C8 0004EAB0 ?blender@Stitcher@cv@@QAE?AU?$Ptr@VBlender@detail@cv@@@2@XZ
       1482  5C9 0004EAB0 ?blender@Stitcher@cv@@QBE?BU?$Ptr@VBlender@detail@cv@@@2@XZ
       1483  5CA 000E4020 ?blurrinessRates@DeblurerBase@videostab@cv@@UBEABV?$vector@MV?$allocator@M@std@@@std@@XZ
       1484  5CB 0003E2C0 ?borderMode@MotionInpainter@videostab@cv@@QBEHXZ
       1485  5CC 00439D50 ?borderMode@StabilizerBase@videostab@cv@@QBEHXZ
       1486  5CD 0004EB30 ?buildMaps@?$RotationWarperBase@UCompressedRectilinearPortraitProjector@detail@cv@@@detail@cv@@UAE?AV?$Rect_@H@3@V?$Size_@H@3@ABV_InputArray@3@1ABV_OutputArray@3@2@Z
       1487  5CE 0004F0B0 ?buildMaps@?$RotationWarperBase@UCompressedRectilinearProjector@detail@cv@@@detail@cv@@UAE?AV?$Rect_@H@3@V?$Size_@H@3@ABV_InputArray@3@1ABV_OutputArray@3@2@Z
       1488  5CF 0004F610 ?buildMaps@?$RotationWarperBase@UCylindricalPortraitProjector@detail@cv@@@detail@cv@@UAE?AV?$Rect_@H@3@V?$Size_@H@3@ABV_InputArray@3@1ABV_OutputArray@3@2@Z
       1489  5D0 0004FB10 ?buildMaps@?$RotationWarperBase@UCylindricalProjector@detail@cv@@@detail@cv@@UAE?AV?$Rect_@H@3@V?$Size_@H@3@ABV_InputArray@3@1ABV_OutputArray@3@2@Z
       1490  5D1 0004FFF0 ?buildMaps@?$RotationWarperBase@UFisheyeProjector@detail@cv@@@detail@cv@@UAE?AV?$Rect_@H@3@V?$Size_@H@3@ABV_InputArray@3@1ABV_OutputArray@3@2@Z
       1491  5D2 00050560 ?buildMaps@?$RotationWarperBase@UMercatorProjector@detail@cv@@@detail@cv@@UAE?AV?$Rect_@H@3@V?$Size_@H@3@ABV_InputArray@3@1ABV_OutputArray@3@2@Z
       1492  5D3 00050AC0 ?buildMaps@?$RotationWarperBase@UPaniniPortraitProjector@detail@cv@@@detail@cv@@UAE?AV?$Rect_@H@3@V?$Size_@H@3@ABV_InputArray@3@1ABV_OutputArray@3@2@Z
       1493  5D4 000510C0 ?buildMaps@?$RotationWarperBase@UPaniniProjector@detail@cv@@@detail@cv@@UAE?AV?$Rect_@H@3@V?$Size_@H@3@ABV_InputArray@3@1ABV_OutputArray@3@2@Z
       1494  5D5 000516C0 ?buildMaps@?$RotationWarperBase@UPlanePortraitProjector@detail@cv@@@detail@cv@@UAE?AV?$Rect_@H@3@V?$Size_@H@3@ABV_InputArray@3@1ABV_OutputArray@3@2@Z
       1495  5D6 00051B60 ?buildMaps@?$RotationWarperBase@UPlaneProjector@detail@cv@@@detail@cv@@UAE?AV?$Rect_@H@3@V?$Size_@H@3@ABV_InputArray@3@1ABV_OutputArray@3@2@Z
       1496  5D7 00051FD0 ?buildMaps@?$RotationWarperBase@USphericalPortraitProjector@detail@cv@@@detail@cv@@UAE?AV?$Rect_@H@3@V?$Size_@H@3@ABV_InputArray@3@1ABV_OutputArray@3@2@Z
       1497  5D8 00052520 ?buildMaps@?$RotationWarperBase@USphericalProjector@detail@cv@@@detail@cv@@UAE?AV?$Rect_@H@3@V?$Size_@H@3@ABV_InputArray@3@1ABV_OutputArray@3@2@Z
       1498  5D9 00052A50 ?buildMaps@?$RotationWarperBase@UStereographicProjector@detail@cv@@@detail@cv@@UAE?AV?$Rect_@H@3@V?$Size_@H@3@ABV_InputArray@3@1ABV_OutputArray@3@2@Z
       1499  5DA 00052FE0 ?buildMaps@?$RotationWarperBase@UTransverseMercatorProjector@detail@cv@@@detail@cv@@UAE?AV?$Rect_@H@3@V?$Size_@H@3@ABV_InputArray@3@1ABV_OutputArray@3@2@Z
       1500  5DB 000535F0 ?buildMaps@CylindricalWarperGpu@detail@cv@@UAE?AV?$Rect_@H@3@V?$Size_@H@3@ABV_InputArray@3@1ABV_OutputArray@3@2@Z
       1501  5DC 00053640 ?buildMaps@PlaneWarperGpu@detail@cv@@UAE?AV?$Rect_@H@3@V?$Size_@H@3@ABV_InputArray@3@11ABV_OutputArray@3@2@Z
       1502  5DD 000536A0 ?buildMaps@PlaneWarperGpu@detail@cv@@UAE?AV?$Rect_@H@3@V?$Size_@H@3@ABV_InputArray@3@1ABV_OutputArray@3@2@Z
       1503  5DE 000535F0 ?buildMaps@SphericalWarperGpu@detail@cv@@UAE?AV?$Rect_@H@3@V?$Size_@H@3@ABV_InputArray@3@1ABV_OutputArray@3@2@Z
       1504  5DF 000536F0 ?bundleAdjuster@Stitcher@cv@@QAE?AU?$Ptr@VBundleAdjusterBase@detail@cv@@@2@XZ
       1505  5E0 000536F0 ?bundleAdjuster@Stitcher@cv@@QBE?BU?$Ptr@VBundleAdjusterBase@detail@cv@@@2@XZ
       1506  5E1 00011280 ?c_str@String@cv@@QBEPBDXZ
       1507  5E2 00053760 ?cameras@Stitcher@cv@@QBE?AV?$vector@UCameraParams@detail@cv@@V?$allocator@UCameraParams@detail@cv@@@std@@@std@@XZ
       1508  5E3 0003E2D0 ?cellSize@TranslationBasedLocalOutlierRejector@videostab@cv@@QBE?AV?$Size_@H@3@XZ
       1509  5E4 0001F9C0 ?channels@GpuMat@cuda@cv@@QBEHXZ
       1510  5E5 0001F9C0 ?channels@HostMem@cuda@cv@@QBEHXZ
       1511  5E6 0001F9C0 ?channels@Mat@cv@@QBEHXZ
       1512  5E7 0001F9C0 ?channels@SparseMat@cv@@QBEHXZ
       1513  5E8 0001F9C0 ?channels@UMat@cv@@QBEHXZ
       1514  5E9 000B8930 ?clear@Algorithm@cv@@UAEXXZ
       1515  5EA 0000EAD0 ?clear@String@cv@@QAEXXZ
       1516  5EB 0001F9D0 ?clone@GpuMat@cuda@cv@@QBE?AV123@XZ
       1517  5EC 0001FA90 ?clone@HostMem@cuda@cv@@QBE?AV123@XZ
       1518  5ED 00011290 ?clone@Mat@cv@@QBE?AV12@XZ
       1519  5EE 00011320 ?clone@SparseMat@cv@@QBE?AV12@XZ
       1520  5EF 00011390 ?clone@UMat@cv@@QBE?AV12@XZ
       1521  5F0 0001B7A0 ?clone_op@DescriptorMatcher@cv@@KA?AVMat@2@V32@@Z
       1522  5F1 0001FBB0 ?col@GpuMat@cuda@cv@@QBE?AV123@H@Z
       1523  5F2 00011460 ?col@Mat@cv@@QBE?AV12@H@Z
       1524  5F3 000114E0 ?col@UMat@cv@@QBE?AV12@H@Z
       1525  5F4 0001FC20 ?colRange@GpuMat@cuda@cv@@QBE?AV123@HH@Z
       1526  5F5 0001FC90 ?colRange@GpuMat@cuda@cv@@QBE?AV123@VRange@3@@Z
       1527  5F6 00011560 ?colRange@Mat@cv@@QBE?AV12@ABVRange@2@@Z
       1528  5F7 000115D0 ?colRange@Mat@cv@@QBE?AV12@HH@Z
       1529  5F8 00011650 ?colRange@UMat@cv@@QBE?AV12@ABVRange@2@@Z
       1530  5F9 000116C0 ?colRange@UMat@cv@@QBE?AV12@HH@Z
       1531  5FA 000B8930 ?collectGarbage@FeaturesFinder@detail@cv@@UAEXXZ
       1532  5FB 000B8930 ?collectGarbage@FeaturesMatcher@detail@cv@@UAEXXZ
       1533  5FC 00011740 ?compare@String@cv@@QBEHABV12@@Z
       1534  5FD 00011790 ?compare@String@cv@@QBEHPBD@Z
       1535  5FE 00053830 ?component@Stitcher@cv@@QBE?AV?$vector@HV?$allocator@H@std@@@std@@XZ
       1536  5FF 002AD870 ?compositingResol@Stitcher@cv@@QBENXZ
       1537  600 0001B820 ?compute2@BOWImgDescriptorExtractor@cv@@QAEXABVMat@2@AAV?$vector@VKeyPoint@cv@@V?$allocator@VKeyPoint@cv@@@std@@@std@@AAV32@@Z
       1538  601 00053890 ?confThresh@BundleAdjusterBase@detail@cv@@QBENXZ
       1539  602 0001FE10 ?convertTo@GpuMat@cuda@cv@@QBEXABV_OutputArray@3@H@Z
       1540  603 0001FDA0 ?convertTo@GpuMat@cuda@cv@@QBEXABV_OutputArray@3@HNAAVStream@23@@Z
       1541  604 0001FDD0 ?convertTo@GpuMat@cuda@cv@@QBEXABV_OutputArray@3@HNN@Z
       1542  605 000117E0 ?copyOnMap@UMatData@cv@@QBE_NXZ
       1543  606 0001FE10 ?copyTo@GpuMat@cuda@cv@@QBEXABV_OutputArray@3@ABV_InputArray@3@@Z
       1544  607 0000FA60 ?costFunction@DpSeamFinder@detail@cv@@QBE?AW4CostFunction@123@XZ
       1545  608 0001FE30 ?create@GpuMat@cuda@cv@@QAEXV?$Size_@H@3@H@Z
       1546  609 000538A0 ?create@Graph@detail@cv@@QAEXH@Z
       1547  60A 0001FE30 ?create@HostMem@cuda@cv@@QAEXV?$Size_@H@3@H@Z
       1548  60B 000117F0 ?create@Mat@cv@@QAEXHHH@Z
       1549  60C 00011850 ?create@Mat@cv@@QAEXV?$Size_@H@2@H@Z
       1550  60D 000118B0 ?create@UMat@cv@@QAEXHHHW4UMatUsageFlags@2@@Z
       1551  60E 00011910 ?create@UMat@cv@@QAEXV?$Size_@H@2@HW4UMatUsageFlags@2@@Z
       1552  60F 0001FE50 ?createMatHeader@HostMem@cuda@cv@@QBE?AVMat@3@XZ
       1553  610 000161B0 ?deblur@NullDeblurer@videostab@cv@@UAEXHAAVMat@3@@Z
       1554  611 0003E350 ?deblurrer@StabilizerBase@videostab@cv@@QBE?AU?$Ptr@VDeblurerBase@videostab@cv@@@3@XZ
       1555  612 0003E3C0 ?default2dMotion@RansacParams@videostab@cv@@SA?AU123@W4MotionModel@23@@Z
       1556  613 000119D0 ?depth@GpuMat@cuda@cv@@QBEHXZ
       1557  614 000119D0 ?depth@HostMem@cuda@cv@@QBEHXZ
       1558  615 000119D0 ?depth@Mat@cv@@QBEHXZ
       1559  616 000119D0 ?depth@SparseMat@cv@@QBEHXZ
       1560  617 000119D0 ?depth@UMat@cv@@QBEHXZ
       1561  618 00053970 ?detectResultRoi@?$RotationWarperBase@UCompressedRectilinearPortraitProjector@detail@cv@@@detail@cv@@MAEXV?$Size_@H@3@AAV?$Point_@H@3@1@Z
       1562  619 00053C50 ?detectResultRoi@?$RotationWarperBase@UCompressedRectilinearProjector@detail@cv@@@detail@cv@@MAEXV?$Size_@H@3@AAV?$Point_@H@3@1@Z
       1563  61A 00053F10 ?detectResultRoi@?$RotationWarperBase@UCylindricalPortraitProjector@detail@cv@@@detail@cv@@MAEXV?$Size_@H@3@AAV?$Point_@H@3@1@Z
       1564  61B 00054170 ?detectResultRoi@?$RotationWarperBase@UCylindricalProjector@detail@cv@@@detail@cv@@MAEXV?$Size_@H@3@AAV?$Point_@H@3@1@Z
       1565  61C 000543A0 ?detectResultRoi@?$RotationWarperBase@UFisheyeProjector@detail@cv@@@detail@cv@@MAEXV?$Size_@H@3@AAV?$Point_@H@3@1@Z
       1566  61D 00054630 ?detectResultRoi@?$RotationWarperBase@UMercatorProjector@detail@cv@@@detail@cv@@MAEXV?$Size_@H@3@AAV?$Point_@H@3@1@Z
       1567  61E 000548B0 ?detectResultRoi@?$RotationWarperBase@UPaniniPortraitProjector@detail@cv@@@detail@cv@@MAEXV?$Size_@H@3@AAV?$Point_@H@3@1@Z
       1568  61F 00054BD0 ?detectResultRoi@?$RotationWarperBase@UPaniniProjector@detail@cv@@@detail@cv@@MAEXV?$Size_@H@3@AAV?$Point_@H@3@1@Z
       1569  620 00054EE0 ?detectResultRoi@?$RotationWarperBase@UPlanePortraitProjector@detail@cv@@@detail@cv@@MAEXV?$Size_@H@3@AAV?$Point_@H@3@1@Z
       1570  621 000550A0 ?detectResultRoi@?$RotationWarperBase@UPlaneProjector@detail@cv@@@detail@cv@@MAEXV?$Size_@H@3@AAV?$Point_@H@3@1@Z
       1571  622 00055250 ?detectResultRoi@?$RotationWarperBase@USphericalPortraitProjector@detail@cv@@@detail@cv@@MAEXV?$Size_@H@3@AAV?$Point_@H@3@1@Z
       1572  623 000554D0 ?detectResultRoi@?$RotationWarperBase@USphericalProjector@detail@cv@@@detail@cv@@MAEXV?$Size_@H@3@AAV?$Point_@H@3@1@Z
       1573  624 00055740 ?detectResultRoi@?$RotationWarperBase@UStereographicProjector@detail@cv@@@detail@cv@@MAEXV?$Size_@H@3@AAV?$Point_@H@3@1@Z
       1574  625 00055A10 ?detectResultRoi@?$RotationWarperBase@UTransverseMercatorProjector@detail@cv@@@detail@cv@@MAEXV?$Size_@H@3@AAV?$Point_@H@3@1@Z
       1575  626 00055D20 ?detectResultRoi@CylindricalPortraitWarper@detail@cv@@MAEXV?$Size_@H@3@AAV?$Point_@H@3@1@Z
       1576  627 00055D50 ?detectResultRoi@CylindricalWarper@detail@cv@@MAEXV?$Size_@H@3@AAV?$Point_@H@3@1@Z
       1577  628 00055D80 ?detectResultRoi@PlanePortraitWarper@detail@cv@@MAEXV?$Size_@H@3@AAV?$Point_@H@3@1@Z
       1578  629 00055DB0 ?detectResultRoiByBorder@?$RotationWarperBase@UCylindricalPortraitProjector@detail@cv@@@detail@cv@@IAEXV?$Size_@H@3@AAV?$Point_@H@3@1@Z
       1579  62A 000564C0 ?detectResultRoiByBorder@?$RotationWarperBase@UCylindricalProjector@detail@cv@@@detail@cv@@IAEXV?$Size_@H@3@AAV?$Point_@H@3@1@Z
       1580  62B 00056BB0 ?detectResultRoiByBorder@?$RotationWarperBase@UPlanePortraitProjector@detail@cv@@@detail@cv@@IAEXV?$Size_@H@3@AAV?$Point_@H@3@1@Z
       1581  62C 0003E4C0 ?detector@KeypointBasedMotionEstimator@videostab@cv@@QBE?AU?$Ptr@VFeature2D@cv@@@3@XZ
       1582  62D 000119E0 ?deviceCopyObsolete@UMatData@cv@@QBE_NXZ
       1583  62E 00012290 ?deviceID@DeviceInfo@cuda@cv@@QBEHXZ
       1584  62F 000119F0 ?deviceMemMapped@UMatData@cv@@QBE_NXZ
       1585  630 00011A00 ?dims@SparseMat@cv@@QBEHXZ
       1586  631 0003E530 ?distThresh@MotionInpainter@videostab@cv@@QBEMXZ
       1587  632 0003E540 ?distanceMap@FastMarchingMethod@videostab@cv@@QBE?AVMat@3@XZ
       1588  633 0003E5A0 ?doCorrectionForInclusion@StabilizerBase@videostab@cv@@QBE_NXZ
       1589  634 00011A10 ?eigenvalues@LDA@cv@@QBE?AVMat@2@XZ
       1590  635 00011A70 ?eigenvectors@LDA@cv@@QBE?AVMat@2@XZ
       1591  636 00011AD0 ?elemSize1@GpuMat@cuda@cv@@QBEIXZ
       1592  637 00011AD0 ?elemSize1@HostMem@cuda@cv@@QBEIXZ
       1593  638 00011AD0 ?elemSize1@Mat@cv@@QBEIXZ
       1594  639 00011AD0 ?elemSize1@SparseMat@cv@@QBEIXZ
       1595  63A 00011AD0 ?elemSize1@UMat@cv@@QBEIXZ
       1596  63B 00011B10 ?elemSize@GpuMat@cuda@cv@@QBEIXZ
       1597  63C 00011B10 ?elemSize@HostMem@cuda@cv@@QBEIXZ
       1598  63D 00011AF0 ?elemSize@Mat@cv@@QBEIXZ
       1599  63E 00011B10 ?elemSize@SparseMat@cv@@QBEIXZ
       1600  63F 00011B40 ?elemSize@UMat@cv@@QBEIXZ
       1601  640 0036D6D0 ?empty@Algorithm@cv@@UBE_NXZ
       1602  641 00011BB0 ?empty@FileNode@cv@@QBE_NXZ
       1603  642 0001FED0 ?empty@GpuMat@cuda@cv@@QBE_NXZ
       1604  643 0001FED0 ?empty@HostMem@cuda@cv@@QBE_NXZ
       1605  644 0003E5B0 ?empty@InpaintingPipeline@videostab@cv@@QBE_NXZ
       1606  645 00011B60 ?empty@Mat@cv@@QBE_NXZ
       1607  646 004F6A20 ?empty@MotionStabilizationPipeline@videostab@cv@@QBE_NXZ
       1608  647 00011BA0 ?empty@Range@cv@@QBE_NXZ
       1609  648 00011BB0 ?empty@String@cv@@QBE_NXZ
       1610  649 00011BC0 ?empty@UMat@cv@@QBE_NXZ
       1611  64A 00011C00 ?end@FileNode@cv@@QBE?AVFileNodeIterator@2@XZ
       1612  64B 00011C30 ?end@SparseMat@cv@@QAE?AVSparseMatIterator@2@XZ
       1613  64C 00011C30 ?end@SparseMat@cv@@QBE?AVSparseMatConstIterator@2@XZ
       1614  64D 00011C70 ?end@String@cv@@QBEPBDXZ
       1615  64E 0034E300 ?exposureCompensator@Stitcher@cv@@QAE?AU?$Ptr@VExposureCompensator@detail@cv@@@2@XZ
       1616  64F 0034E300 ?exposureCompensator@Stitcher@cv@@QBE?BU?$Ptr@VExposureCompensator@detail@cv@@@2@XZ
       1617  650 000570C0 ?featuresFinder@Stitcher@cv@@QAE?AU?$Ptr@VFeaturesFinder@detail@cv@@@2@XZ
       1618  651 000570C0 ?featuresFinder@Stitcher@cv@@QBE?BU?$Ptr@VFeaturesFinder@detail@cv@@@2@XZ
       1619  652 00461C30 ?featuresMatcher@Stitcher@cv@@QAE?AU?$Ptr@VFeaturesMatcher@detail@cv@@@2@XZ
       1620  653 00461C30 ?featuresMatcher@Stitcher@cv@@QBE?BU?$Ptr@VFeaturesMatcher@detail@cv@@@2@XZ
       1621  654 0003E6B0 ?feed@NoExposureCompensator@detail@cv@@UAEXABV?$vector@V?$Point_@H@cv@@V?$allocator@V?$Point_@H@cv@@@std@@@std@@ABV?$vector@VUMat@cv@@V?$allocator@VUMat@cv@@@std@@@5@ABV?$vector@U?$pair@VUMat@cv@@E@std@@V?$allocator@U?$pair@VUMat@cv@@E@std@@@2@@5@@Z
       1622  655 0003E6B0 ?find@NoSeamFinder@detail@cv@@UAEXABV?$vector@VUMat@cv@@V?$allocator@VUMat@cv@@@std@@@std@@ABV?$vector@V?$Point_@H@cv@@V?$allocator@V?$Point_@H@cv@@@std@@@5@AAV45@@Z
       1623  656 00011DC0 ?find@String@cv@@QBEIABV12@I@Z
       1624  657 00011DF0 ?find@String@cv@@QBEIDI@Z
       1625  658 00011E60 ?find@String@cv@@QBEIPBDI@Z
       1626  659 00011EE0 ?find@String@cv@@QBEIPBDII@Z
       1627  65A 00011F60 ?find_first_of@String@cv@@QBEIABV12@I@Z
       1628  65B 00011F90 ?find_first_of@String@cv@@QBEIDI@Z
       1629  65C 00011FF0 ?find_first_of@String@cv@@QBEIPBDI@Z
       1630  65D 00012050 ?find_first_of@String@cv@@QBEIPBDII@Z
       1631  65E 000120C0 ?find_last_of@String@cv@@QBEIABV12@I@Z
       1632  65F 000120F0 ?find_last_of@String@cv@@QBEIDI@Z
       1633  660 00012140 ?find_last_of@String@cv@@QBEIPBDI@Z
       1634  661 000121A0 ?find_last_of@String@cv@@QBEIPBDII@Z
       1635  662 0003E5C0 ?flowErrorThreshold@MotionInpainter@videostab@cv@@QBEMXZ
       1636  663 00714180 ?frameCount@WobbleSuppressorBase@videostab@cv@@UBEHXZ
       1637  664 00012340 ?frameSize@LpMotionStabilizer@videostab@cv@@QBE?AV?$Size_@H@3@XZ
       1638  665 0003E5D0 ?frameSource@StabilizerBase@videostab@cv@@QBE?AU?$Ptr@VIFrameSource@videostab@cv@@@3@XZ
       1639  666 002DA2D0 ?frames@DeblurerBase@videostab@cv@@UBEABV?$vector@VMat@cv@@V?$allocator@VMat@cv@@@std@@@std@@XZ
       1640  667 00714180 ?frames@InpainterBase@videostab@cv@@UBEABV?$vector@VMat@cv@@V?$allocator@VMat@cv@@@std@@@std@@XZ
       1641  668 0001FEE0 ?freeMemory@DeviceInfo@cuda@cv@@QBEIXZ
       1642  669 00012200 ?getFirstTopLevelNode@FileStorage@cv@@QBE?AVFileNode@2@XZ
       1643  66A 00012290 ?getFlags@_InputArray@cv@@QBEHXZ
       1644  66B 000122A0 ?getMat@_InputArray@cv@@QBE?AVMat@2@H@Z
       1645  66C 0000FA60 ?getObj@_InputArray@cv@@QBEPAXXZ
       1646  66D 00057130 ?getScale@?$RotationWarperBase@UCompressedRectilinearPortraitProjector@detail@cv@@@detail@cv@@UBEMXZ
       1647  66E 00057130 ?getScale@?$RotationWarperBase@UCompressedRectilinearProjector@detail@cv@@@detail@cv@@UBEMXZ
       1648  66F 00057130 ?getScale@?$RotationWarperBase@UCylindricalPortraitProjector@detail@cv@@@detail@cv@@UBEMXZ
       1649  670 00057130 ?getScale@?$RotationWarperBase@UCylindricalProjector@detail@cv@@@detail@cv@@UBEMXZ
       1650  671 00057130 ?getScale@?$RotationWarperBase@UFisheyeProjector@detail@cv@@@detail@cv@@UBEMXZ
       1651  672 00057130 ?getScale@?$RotationWarperBase@UMercatorProjector@detail@cv@@@detail@cv@@UBEMXZ
       1652  673 00057130 ?getScale@?$RotationWarperBase@UPaniniPortraitProjector@detail@cv@@@detail@cv@@UBEMXZ
       1653  674 00057130 ?getScale@?$RotationWarperBase@UPaniniProjector@detail@cv@@@detail@cv@@UBEMXZ
       1654  675 00057130 ?getScale@?$RotationWarperBase@UPlanePortraitProjector@detail@cv@@@detail@cv@@UBEMXZ
       1655  676 00057130 ?getScale@?$RotationWarperBase@UPlaneProjector@detail@cv@@@detail@cv@@UBEMXZ
       1656  677 00057130 ?getScale@?$RotationWarperBase@USphericalPortraitProjector@detail@cv@@@detail@cv@@UBEMXZ
       1657  678 00057130 ?getScale@?$RotationWarperBase@USphericalProjector@detail@cv@@@detail@cv@@UBEMXZ
       1658  679 00057130 ?getScale@?$RotationWarperBase@UStereographicProjector@detail@cv@@@detail@cv@@UBEMXZ
       1659  67A 00057130 ?getScale@?$RotationWarperBase@UTransverseMercatorProjector@detail@cv@@@detail@cv@@UBEMXZ
       1660  67B 00057140 ?getScale@RotationWarper@detail@cv@@UBEMXZ
       1661  67C 00012340 ?getSz@_InputArray@cv@@QBE?AV?$Size_@H@2@XZ
       1662  67D 00029500 ?has@TargetArchs@cuda@cv@@SA_NHH@Z
       1663  67E 00029500 ?hasEqualOrGreater@TargetArchs@cuda@cv@@SA_NHH@Z
       1664  67F 0002E5A0 ?hash@SparseMat@cv@@QBEIH@Z
       1665  680 00012360 ?hash@SparseMat@cv@@QBEIHH@Z
       1666  681 00012380 ?hash@SparseMat@cv@@QBEIHHH@Z
       1667  682 000123A0 ?hash@SparseMat@cv@@QBEIPBH@Z
       1668  683 000123E0 ?hostCopyObsolete@UMatData@cv@@QBE_NXZ
       1669  684 0003E680 ?indexOf@FastMarchingMethod@videostab@cv@@AAEAAHABUDXY@123@@Z
       1670  685 000123F0 ?init@_InputArray@cv@@IAEXHPBX@Z
       1671  686 00012410 ?init@_InputArray@cv@@IAEXHPBXV?$Size_@H@2@@Z
       1672  687 0062C3B0 ?initializeMask@MaskGenerator@BaseCascadeClassifier@cv@@UAEXABVMat@3@@Z
       1673  688 0003E6B0 ?inpaint@NullInpainter@videostab@cv@@UAEXHAAVMat@3@0@Z
       1674  689 0003E6C0 ?inpainter@StabilizerBase@videostab@cv@@QBE?AU?$Ptr@VInpainterBase@videostab@cv@@@3@XZ
       1675  68A 000227C0 ?isAMD@Device@ocl@cv@@QBE_NXZ
       1676  68B 00012430 ?isContinuous@GpuMat@cuda@cv@@QBE_NXZ
       1677  68C 00012430 ?isContinuous@HostMem@cuda@cv@@QBE_NXZ
       1678  68D 00012430 ?isContinuous@Mat@cv@@QBE_NXZ
       1679  68E 00012430 ?isContinuous@UMat@cv@@QBE_NXZ
       1680  68F 00012440 ?isInt@FileNode@cv@@QBE_NXZ
       1681  690 000227D0 ?isIntel@Device@ocl@cv@@QBE_NXZ
       1682  691 00012450 ?isMap@FileNode@cv@@QBE_NXZ
       1683  692 002D16D0 ?isMaskSupported@BFMatcher@cv@@UBE_NXZ
       1684  693 00012460 ?isMat@_InputArray@cv@@QBE_NXZ
       1685  694 00012470 ?isMatVector@_InputArray@cv@@QBE_NXZ
       1686  695 00012480 ?isMatx@_InputArray@cv@@QBE_NXZ
       1687  696 000227E0 ?isNVidia@Device@ocl@cv@@QBE_NXZ
       1688  697 00012490 ?isNone@FileNode@cv@@QBE_NXZ
       1689  698 000124A0 ?isReal@FileNode@cv@@QBE_NXZ
       1690  699 000124B0 ?isSeq@FileNode@cv@@QBE_NXZ
       1691  69A 000124C0 ?isString@FileNode@cv@@QBE_NXZ
       1692  69B 000124D0 ?isSubmatrix@Mat@cv@@QBE_NXZ
       1693  69C 000124D0 ?isSubmatrix@UMat@cv@@QBE_NXZ
       1694  69D 002D16E0 ?isThreadSafe@FeaturesMatcher@detail@cv@@QBE_NXZ
       1695  69E 000124E0 ?isUMat@_InputArray@cv@@QBE_NXZ
       1696  69F 000124F0 ?isUMatVector@_InputArray@cv@@QBE_NXZ
       1697  6A0 0000FA60 ?length@String@cv@@QBEIXZ
       1698  6A1 00013F70 ?log@DataLogger@emgu@@QAEXPAX@Z
       1699  6A2 00013F90 ?log@DataLogger@emgu@@QAEXPAXH@Z
       1700  6A3 0003E730 ?log@StabilizerBase@videostab@cv@@QBE?AU?$Ptr@VILog@videostab@cv@@@3@XZ
       1701  6A4 00013FB0 ?logMsg@DataLogger@emgu@@QAAXPBDHZZ
       1702  6A5 00057150 ?mapBackward@CompressedRectilinearPortraitProjector@detail@cv@@QAEXMMAAM0@Z
       1703  6A6 000572E0 ?mapBackward@CompressedRectilinearProjector@detail@cv@@QAEXMMAAM0@Z
       1704  6A7 00057460 ?mapBackward@CylindricalProjector@detail@cv@@QAEXMMAAM0@Z
       1705  6A8 00057580 ?mapBackward@FisheyeProjector@detail@cv@@QAEXMMAAM0@Z
       1706  6A9 00057730 ?mapBackward@MercatorProjector@detail@cv@@QAEXMMAAM0@Z
       1707  6AA 000578B0 ?mapBackward@PaniniPortraitProjector@detail@cv@@QAEXMMAAM0@Z
       1708  6AB 00057AB0 ?mapBackward@PaniniProjector@detail@cv@@QAEXMMAAM0@Z
       1709  6AC 00057CB0 ?mapBackward@PlaneProjector@detail@cv@@QAEXMMAAM0@Z
       1710  6AD 00057DA0 ?mapBackward@SphericalProjector@detail@cv@@QAEXMMAAM0@Z
       1711  6AE 00057F00 ?mapBackward@StereographicProjector@detail@cv@@QAEXMMAAM0@Z
       1712  6AF 000580D0 ?mapBackward@TransverseMercatorProjector@detail@cv@@QAEXMMAAM0@Z
       1713  6B0 000582C0 ?mapForward@CompressedRectilinearPortraitProjector@detail@cv@@QAEXMMAAM0@Z
       1714  6B1 00058430 ?mapForward@CompressedRectilinearProjector@detail@cv@@QAEXMMAAM0@Z
       1715  6B2 000585A0 ?mapForward@CylindricalProjector@detail@cv@@QAEXMMAAM0@Z
       1716  6B3 000586A0 ?mapForward@FisheyeProjector@detail@cv@@QAEXMMAAM0@Z
       1717  6B4 00058800 ?mapForward@MercatorProjector@detail@cv@@QAEXMMAAM0@Z
       1718  6B5 00058940 ?mapForward@PaniniPortraitProjector@detail@cv@@QAEXMMAAM0@Z
       1719  6B6 00058B20 ?mapForward@PaniniProjector@detail@cv@@QAEXMMAAM0@Z
       1720  6B7 00058CF0 ?mapForward@PlaneProjector@detail@cv@@QAEXMMAAM0@Z
       1721  6B8 00058DA0 ?mapForward@SphericalProjector@detail@cv@@QAEXMMAAM0@Z
       1722  6B9 00058ED0 ?mapForward@StereographicProjector@detail@cv@@QAEXMMAAM0@Z
       1723  6BA 00059070 ?mapForward@TransverseMercatorProjector@detail@cv@@QAEXMMAAM0@Z
       1724  6BB 00012500 ?markDeviceCopyObsolete@UMatData@cv@@QAEX_N@Z
       1725  6BC 00012520 ?markDeviceMemMapped@UMatData@cv@@QAEX_N@Z
       1726  6BD 00012540 ?markHostCopyObsolete@UMatData@cv@@QAEX_N@Z
       1727  6BE 00059230 ?matchingMask@Stitcher@cv@@QBEABVUMat@2@XZ
       1728  6BF 00714180 ?maxLevel@PyrLkOptFlowEstimatorBase@videostab@cv@@UBEHXZ
       1729  6C0 0003FD80 ?minInlierRatio@MotionEstimatorRansacL2@videostab@cv@@QBEMXZ
       1730  6C1 0002F860 ?missingValue@TrainData@ml@cv@@SAMXZ
       1731  6C2 0003E7A0 ?motionEstimator@StabilizerBase@videostab@cv@@QBE?AU?$Ptr@VImageMotionEstimatorBase@videostab@cv@@@3@XZ
       1732  6C3 0003E730 ?motionEstimator@WobbleSuppressorBase@videostab@cv@@QBE?AU?$Ptr@VImageMotionEstimatorBase@videostab@cv@@@3@XZ
       1733  6C4 0003E830 ?motionFilter@OnePassStabilizer@videostab@cv@@QBE?AU?$Ptr@VMotionFilterBase@videostab@cv@@@3@XZ
       1734  6C5 0000FA60 ?motionModel@ImageMotionEstimatorBase@videostab@cv@@UBE?AW4MotionModel@23@XZ
       1735  6C6 002DA2D0 ?motionModel@InpainterBase@videostab@cv@@UBE?AW4MotionModel@23@XZ
       1736  6C7 0003E810 ?motionModel@KeypointBasedMotionEstimator@videostab@cv@@UBE?AW4MotionModel@23@XZ
       1737  6C8 0000FA60 ?motionModel@LpMotionStabilizer@videostab@cv@@QBE?AW4MotionModel@23@XZ
       1738  6C9 0000FA60 ?motionModel@MotionEstimatorBase@videostab@cv@@UBE?AW4MotionModel@23@XZ
       1739  6CA 0003E820 ?motionModel@ToFileMotionWriter@videostab@cv@@UBE?AW4MotionModel@23@XZ
       1740  6CB 0003E830 ?motionStabilizer@TwoPassStabilizer@videostab@cv@@QBE?AU?$Ptr@VIMotionStabilizer@videostab@cv@@@3@XZ
       1741  6CC 0003FAE0 ?motions2@WobbleSuppressorBase@videostab@cv@@UBEABV?$vector@VMat@cv@@V?$allocator@VMat@cv@@@std@@@std@@XZ
       1742  6CD 00714180 ?motions@DeblurerBase@videostab@cv@@UBEABV?$vector@VMat@cv@@V?$allocator@VMat@cv@@@std@@@std@@XZ
       1743  6CE 000E4020 ?motions@InpainterBase@videostab@cv@@UBEABV?$vector@VMat@cv@@V?$allocator@VMat@cv@@@std@@@std@@XZ
       1744  6CF 000E4020 ?motions@WobbleSuppressorBase@videostab@cv@@UBEABV?$vector@VMat@cv@@V?$allocator@VMat@cv@@@std@@@std@@XZ
       1745  6D0 0003E8B0 ?mustEstimateTrimaRatio@TwoPassStabilizer@videostab@cv@@QBE_NXZ
       1746  6D1 00012750 ?next@RNG@cv@@QAEIXZ
       1747  6D2 0003E950 ?nextFrame@NullFrameSource@videostab@cv@@UAE?AVMat@3@XZ
       1748  6D3 0003E9B0 ?nextFrame@OnePassStabilizer@videostab@cv@@UAE?AVMat@3@XZ
       1749  6D4 0003EA10 ?niters@RansacParams@videostab@cv@@QBEHXZ
       1750  6D5 00012780 ?node@SparseMat@cv@@QAEPAUNode@12@I@Z
       1751  6D6 00012780 ?node@SparseMat@cv@@QBEPBUNode@12@I@Z
       1752  6D7 00012790 ?node@SparseMatConstIterator@cv@@QBEPBUNode@SparseMat@2@XZ
       1753  6D8 00012790 ?node@SparseMatIterator@cv@@QBEPAUNode@SparseMat@2@XZ
       1754  6D9 00783D70 ?npos@String@cv@@2IB
       1755  6DA 0034E810 ?numBands@MultiBandBlender@detail@cv@@QBEHXZ
       1756  6DB 00059240 ?numVertices@Graph@detail@cv@@QBEHXZ
       1757  6DC 000127B0 ?nzcount@SparseMat@cv@@QBEIXZ
       1758  6DD 0003EAD0 ?optFlowEstimator@MotionInpainter@videostab@cv@@QBE?AU?$Ptr@VIDenseOptFlowEstimator@videostab@cv@@@3@XZ
       1759  6DE 0003EB50 ?opticalFlowEstimator@KeypointBasedMotionEstimator@videostab@cv@@QBE?AU?$Ptr@VISparseOptFlowEstimator@videostab@cv@@@3@XZ
       1760  6DF 000570C0 ?outlierRejector@KeypointBasedMotionEstimator@videostab@cv@@QBE?AU?$Ptr@VIOutlierRejector@videostab@cv@@@3@XZ
       1761  6E0 002AD8A0 ?panoConfidenceThresh@Stitcher@cv@@QBENXZ
       1762  6E1 002B51D0 ?period@MoreAccurateMotionWobbleSuppressorBase@videostab@cv@@UBEHXZ
       1763  6E2 00016210 ?pos@LineIterator@cv@@QBE?AV?$Point_@H@2@XZ
       1764  6E3 000B8930 ?print@NullLog@videostab@cv@@UAAXPBDZZ
       1765  6E4 0001FF00 ?ptr@GpuMat@cuda@cv@@QAEPAEH@Z
       1766  6E5 0001FF00 ?ptr@GpuMat@cuda@cv@@QBEPBEH@Z
       1767  6E6 00012940 ?ptr@Mat@cv@@QAEPAEH@Z
       1768  6E7 00012960 ?ptr@Mat@cv@@QAEPAEHH@Z
       1769  6E8 000127C0 ?ptr@Mat@cv@@QAEPAEHHH@Z
       1770  6E9 000127F0 ?ptr@Mat@cv@@QAEPAEPBH@Z
       1771  6EA 00012940 ?ptr@Mat@cv@@QBEPBEH@Z
       1772  6EB 00012960 ?ptr@Mat@cv@@QBEPBEHH@Z
       1773  6EC 000127C0 ?ptr@Mat@cv@@QBEPBEHHH@Z
       1774  6ED 000127F0 ?ptr@Mat@cv@@QBEPBEPBH@Z
       1775  6EE 0003EE70 ?pushBack@InpaintingPipeline@videostab@cv@@QAEXU?$Ptr@VInpainterBase@videostab@cv@@@3@@Z
       1776  6EF 0003EEF0 ?pushBack@MotionStabilizationPipeline@videostab@cv@@QAEXU?$Ptr@VIMotionStabilizer@videostab@cv@@@3@@Z
       1777  6F0 0000FA60 ?radius@DeblurerBase@videostab@cv@@UBEHXZ
       1778  6F1 0000FA60 ?radius@GaussianMotionFilter@videostab@cv@@QBEHXZ
       1779  6F2 0000FA60 ?radius@InpainterBase@videostab@cv@@UBEHXZ
       1780  6F3 002AD8C0 ?radius@StabilizerBase@videostab@cv@@QBEHXZ
       1781  6F4 0003F040 ?ransacParams@MotionEstimatorRansacL2@videostab@cv@@QBE?AURansacParams@23@XZ
       1782  6F5 0003F060 ?ransacParams@TranslationBasedLocalOutlierRejector@videostab@cv@@QBE?AURansacParams@23@XZ
       1783  6F6 0062C3B0 ?read@Algorithm@cv@@UAEXABVFileNode@2@@Z
       1784  6F7 00012980 ?readRaw@FileNode@cv@@QBEXABVString@2@PAEI@Z
       1785  6F8 00059250 ?refinementMask@BundleAdjusterBase@detail@cv@@QBE?BVMat@3@XZ
       1786  6F9 0003F6C0 ?registerCallback@DataLogger@emgu@@QAEXP6AXPAXH@Z@Z
       1787  6FA 000592B0 ?registrationResol@Stitcher@cv@@QBENXZ
       1788  6FB 000129B0 ?release@Mat@cv@@QAEXXZ
       1789  6FC 0000EA80 ?release@SparseMat@cv@@QAEXXZ
       1790  6FD 00012A20 ?release@UMat@cv@@QAEXXZ
       1791  6FE 000B8930 ?reset@NullFrameSource@videostab@cv@@UAEXXZ
       1792  6FF 00012B30 ?rfind@String@cv@@QBEIABV12@I@Z
       1793  700 00012B60 ?rfind@String@cv@@QBEIDI@Z
       1794  701 00012B80 ?rfind@String@cv@@QBEIPBDI@Z
       1795  702 00012BB0 ?rfind@String@cv@@QBEIPBDII@Z
       1796  703 000200C0 ?row@GpuMat@cuda@cv@@QBE?AV123@H@Z
       1797  704 00012C30 ?row@Mat@cv@@QBE?AV12@H@Z
       1798  705 00012CB0 ?row@UMat@cv@@QBE?AV12@H@Z
       1799  706 00020130 ?rowRange@GpuMat@cuda@cv@@QBE?AV123@HH@Z
       1800  707 000201A0 ?rowRange@GpuMat@cuda@cv@@QBE?AV123@VRange@3@@Z
       1801  708 00012D30 ?rowRange@Mat@cv@@QBE?AV12@ABVRange@2@@Z
       1802  709 00012DA0 ?rowRange@Mat@cv@@QBE?AV12@HH@Z
       1803  70A 00012E20 ?rowRange@UMat@cv@@QBE?AV12@ABVRange@2@@Z
       1804  70B 00012E90 ?rowRange@UMat@cv@@QBE?AV12@HH@Z
       1805  70C 002AD890 ?seamEstimationResol@Stitcher@cv@@QBENXZ
       1806  70D 000592C0 ?seamFinder@Stitcher@cv@@QAE?AU?$Ptr@VSeamFinder@detail@cv@@@2@XZ
       1807  70E 000592C0 ?seamFinder@Stitcher@cv@@QBE?BU?$Ptr@VSeamFinder@detail@cv@@@2@XZ
       1808  70F 00012F10 ?seekEnd@SparseMatConstIterator@cv@@QAEXXZ
       1809  710 002DA2F0 ?sensitivity@WeightingDeblurer@videostab@cv@@QBEMXZ
       1810  711 0003F280 ?set@LpMotionStabilizer@videostab@cv@@AAEXHHN@Z
       1811  712 0003F2B0 ?set@MotionEstimatorL1@videostab@cv@@AAEXHHN@Z
       1812  713 00059340 ?setBlender@Stitcher@cv@@QAEXU?$Ptr@VBlender@detail@cv@@@2@@Z
       1813  714 004CAED0 ?setBlurrinessRates@DeblurerBase@videostab@cv@@UAEXABV?$vector@MV?$allocator@M@std@@@std@@@Z
       1814  715 0003F2E0 ?setBorderMode@MotionInpainter@videostab@cv@@QAEXH@Z
       1815  716 0003F2F0 ?setBorderMode@StabilizerBase@videostab@cv@@QAEXH@Z
       1816  717 000593C0 ?setBundleAdjuster@Stitcher@cv@@QAEXU?$Ptr@VBundleAdjusterBase@detail@cv@@@2@@Z
       1817  718 0003F300 ?setCellSize@TranslationBasedLocalOutlierRejector@videostab@cv@@QAEXV?$Size_@H@3@@Z
       1818  719 00382100 ?setCompositingResol@Stitcher@cv@@QAEXN@Z
       1819  71A 00059440 ?setConfThresh@BundleAdjusterBase@detail@cv@@QAEXN@Z
       1820  71B 0003F320 ?setCorrectionForInclusion@StabilizerBase@videostab@cv@@QAEX_N@Z
       1821  71C 0003F900 ?setCostFunction@DpSeamFinder@detail@cv@@QAEXW4CostFunction@123@@Z
       1822  71D 0003F330 ?setDeblurer@StabilizerBase@videostab@cv@@QAEXU?$Ptr@VDeblurerBase@videostab@cv@@@3@@Z
       1823  71E 0003F3B0 ?setDetector@KeypointBasedMotionEstimator@videostab@cv@@QAEXU?$Ptr@VFeature2D@cv@@@3@@Z
       1824  71F 0003F430 ?setDistThreshold@MotionInpainter@videostab@cv@@QAEXM@Z
       1825  720 0003F450 ?setEstimateTrimRatio@TwoPassStabilizer@videostab@cv@@QAEX_N@Z
       1826  721 00059460 ?setExposureCompensator@Stitcher@cv@@QAEXU?$Ptr@VExposureCompensator@detail@cv@@@2@@Z
       1827  722 0003F870 ?setFeaturesFinder@Stitcher@cv@@QAEXU?$Ptr@VFeaturesFinder@detail@cv@@@2@@Z
       1828  723 000594E0 ?setFeaturesMatcher@Stitcher@cv@@QAEXU?$Ptr@VFeaturesMatcher@detail@cv@@@2@@Z
       1829  724 0003F460 ?setFlowErrorThreshold@MotionInpainter@videostab@cv@@QAEXM@Z
       1830  725 0041F9D0 ?setFrameCount@WobbleSuppressorBase@videostab@cv@@UAEXH@Z
       1831  726 0003F480 ?setFrameSize@LpMotionStabilizer@videostab@cv@@QAEXV?$Size_@H@3@@Z
       1832  727 0003F4A0 ?setFrameSource@StabilizerBase@videostab@cv@@QAEXU?$Ptr@VIFrameSource@videostab@cv@@@3@@Z
       1833  728 0003F6C0 ?setFrames@DeblurerBase@videostab@cv@@UAEXABV?$vector@VMat@cv@@V?$allocator@VMat@cv@@@std@@@std@@@Z
       1834  729 0041F9D0 ?setFrames@InpainterBase@videostab@cv@@UAEXABV?$vector@VMat@cv@@V?$allocator@VMat@cv@@@std@@@std@@@Z
       1835  72A 0003F520 ?setInpainter@StabilizerBase@videostab@cv@@QAEXU?$Ptr@VInpainterBase@videostab@cv@@@3@@Z
       1836  72B 0003F640 ?setLog@StabilizerBase@videostab@cv@@QAEXU?$Ptr@VILog@videostab@cv@@@3@@Z
       1837  72C 00059560 ?setMatchingMask@Stitcher@cv@@QAEXABVUMat@2@@Z
       1838  72D 0041F9D0 ?setMaxLevel@PyrLkOptFlowEstimatorBase@videostab@cv@@UAEXH@Z
       1839  72E 0003F5A0 ?setMinInlierRatio@MotionEstimatorRansacL2@videostab@cv@@QAEXM@Z
       1840  72F 0003F5C0 ?setMotionEstimator@StabilizerBase@videostab@cv@@QAEXU?$Ptr@VImageMotionEstimatorBase@videostab@cv@@@3@@Z
       1841  730 0003F640 ?setMotionEstimator@WobbleSuppressorBase@videostab@cv@@QAEXU?$Ptr@VImageMotionEstimatorBase@videostab@cv@@@3@@Z
       1842  731 0003F6F0 ?setMotionFilter@OnePassStabilizer@videostab@cv@@QAEXU?$Ptr@VMotionFilterBase@videostab@cv@@@3@@Z
       1843  732 0003F900 ?setMotionModel@ImageMotionEstimatorBase@videostab@cv@@UAEXW4MotionModel@23@@Z
       1844  733 0003F6C0 ?setMotionModel@InpainterBase@videostab@cv@@UAEXW4MotionModel@23@@Z
       1845  734 0003F6D0 ?setMotionModel@KeypointBasedMotionEstimator@videostab@cv@@UAEXW4MotionModel@23@@Z
       1846  735 0003F900 ?setMotionModel@LpMotionStabilizer@videostab@cv@@QAEXW4MotionModel@23@@Z
       1847  736 0003F900 ?setMotionModel@MotionEstimatorBase@videostab@cv@@UAEXW4MotionModel@23@@Z
       1848  737 0003F6E0 ?setMotionModel@ToFileMotionWriter@videostab@cv@@UAEXW4MotionModel@23@@Z
       1849  738 0003F6F0 ?setMotionStabilizer@TwoPassStabilizer@videostab@cv@@QAEXU?$Ptr@VIMotionStabilizer@videostab@cv@@@3@@Z
       1850  739 00495280 ?setMotions2@WobbleSuppressorBase@videostab@cv@@UAEXABV?$vector@VMat@cv@@V?$allocator@VMat@cv@@@std@@@std@@@Z
       1851  73A 0041F9D0 ?setMotions@DeblurerBase@videostab@cv@@UAEXABV?$vector@VMat@cv@@V?$allocator@VMat@cv@@@std@@@std@@@Z
       1852  73B 004CAED0 ?setMotions@InpainterBase@videostab@cv@@UAEXABV?$vector@VMat@cv@@V?$allocator@VMat@cv@@@std@@@std@@@Z
       1853  73C 004CAED0 ?setMotions@WobbleSuppressorBase@videostab@cv@@UAEXABV?$vector@VMat@cv@@V?$allocator@VMat@cv@@@std@@@std@@@Z
       1854  73D 00059650 ?setNumBands@MultiBandBlender@detail@cv@@QAEXH@Z
       1855  73E 0003F770 ?setOptFlowEstimator@MotionInpainter@videostab@cv@@QAEXU?$Ptr@VIDenseOptFlowEstimator@videostab@cv@@@3@@Z
       1856  73F 0003F7F0 ?setOpticalFlowEstimator@KeypointBasedMotionEstimator@videostab@cv@@QAEXU?$Ptr@VISparseOptFlowEstimator@videostab@cv@@@3@@Z
       1857  740 0003F870 ?setOutlierRejector@KeypointBasedMotionEstimator@videostab@cv@@QAEXU?$Ptr@VIOutlierRejector@videostab@cv@@@3@@Z
       1858  741 00389730 ?setPanoConfidenceThresh@Stitcher@cv@@QAEXN@Z
       1859  742 0003F8F0 ?setPeriod@MoreAccurateMotionWobbleSuppressorBase@videostab@cv@@UAEXH@Z
       1860  743 0003F900 ?setRadius@DeblurerBase@videostab@cv@@UAEXH@Z
       1861  744 0003F900 ?setRadius@InpainterBase@videostab@cv@@UAEXH@Z
       1862  745 003820F0 ?setRadius@StabilizerBase@videostab@cv@@QAEXH@Z
       1863  746 0003F910 ?setRansacParams@MotionEstimatorRansacL2@videostab@cv@@QAEXABURansacParams@23@@Z
       1864  747 0003F930 ?setRansacParams@TranslationBasedLocalOutlierRejector@videostab@cv@@QAEXURansacParams@23@@Z
       1865  748 00059660 ?setRefinementMask@BundleAdjusterBase@detail@cv@@QAEXABVMat@3@@Z
       1866  749 00059760 ?setRegistrationResol@Stitcher@cv@@QAEXN@Z
       1867  74A 00059770 ?setScale@?$RotationWarperBase@UCompressedRectilinearPortraitProjector@detail@cv@@@detail@cv@@UAEXM@Z
       1868  74B 00059770 ?setScale@?$RotationWarperBase@UCompressedRectilinearProjector@detail@cv@@@detail@cv@@UAEXM@Z
       1869  74C 00059770 ?setScale@?$RotationWarperBase@UCylindricalPortraitProjector@detail@cv@@@detail@cv@@UAEXM@Z
       1870  74D 00059770 ?setScale@?$RotationWarperBase@UCylindricalProjector@detail@cv@@@detail@cv@@UAEXM@Z
       1871  74E 00059770 ?setScale@?$RotationWarperBase@UFisheyeProjector@detail@cv@@@detail@cv@@UAEXM@Z
       1872  74F 00059770 ?setScale@?$RotationWarperBase@UMercatorProjector@detail@cv@@@detail@cv@@UAEXM@Z
       1873  750 00059770 ?setScale@?$RotationWarperBase@UPaniniPortraitProjector@detail@cv@@@detail@cv@@UAEXM@Z
       1874  751 00059770 ?setScale@?$RotationWarperBase@UPaniniProjector@detail@cv@@@detail@cv@@UAEXM@Z
       1875  752 00059770 ?setScale@?$RotationWarperBase@UPlanePortraitProjector@detail@cv@@@detail@cv@@UAEXM@Z
       1876  753 00059770 ?setScale@?$RotationWarperBase@UPlaneProjector@detail@cv@@@detail@cv@@UAEXM@Z
       1877  754 00059770 ?setScale@?$RotationWarperBase@USphericalPortraitProjector@detail@cv@@@detail@cv@@UAEXM@Z
       1878  755 00059770 ?setScale@?$RotationWarperBase@USphericalProjector@detail@cv@@@detail@cv@@UAEXM@Z
       1879  756 00059770 ?setScale@?$RotationWarperBase@UStereographicProjector@detail@cv@@@detail@cv@@UAEXM@Z
       1880  757 00059770 ?setScale@?$RotationWarperBase@UTransverseMercatorProjector@detail@cv@@@detail@cv@@UAEXM@Z
       1881  758 0062C3B0 ?setScale@RotationWarper@detail@cv@@UAEXM@Z
       1882  759 00440330 ?setSeamEstimationResol@Stitcher@cv@@QAEXN@Z
       1883  75A 00059790 ?setSeamFinder@Stitcher@cv@@QAEXU?$Ptr@VSeamFinder@detail@cv@@@2@@Z
       1884  75B 0003F950 ?setSensitivity@WeightingDeblurer@videostab@cv@@QAEXM@Z
       1885  75C 00059810 ?setSharpness@FeatherBlender@detail@cv@@QAEXM@Z
       1886  75D 00440320 ?setStabilizationMotions@InpainterBase@videostab@cv@@UAEXABV?$vector@VMat@cv@@V?$allocator@VMat@cv@@@std@@@std@@@Z
       1887  75E 00440320 ?setStabilizationMotions@WobbleSuppressorBase@videostab@cv@@UAEXABV?$vector@VMat@cv@@V?$allocator@VMat@cv@@@std@@@std@@@Z
       1888  75F 00495280 ?setStabilizedFrames@InpainterBase@videostab@cv@@UAEXABV?$vector@VMat@cv@@V?$allocator@VMat@cv@@@std@@@std@@@Z
       1889  760 0003F990 ?setStdevThresh@ConsistentMosaicInpainter@videostab@cv@@QAEXM@Z
       1890  761 00059830 ?setTermCriteria@BundleAdjusterBase@detail@cv@@QAEXABVTermCriteria@3@@Z
       1891  762 00020210 ?setTo@GpuMat@cuda@cv@@QAEAAV123@V?$Scalar_@N@3@@Z
       1892  763 00020260 ?setTo@GpuMat@cuda@cv@@QAEAAV123@V?$Scalar_@N@3@ABV_InputArray@3@@Z
       1893  764 0041F9B0 ?setTrimRatio@LpMotionStabilizer@videostab@cv@@QAEXM@Z
       1894  765 0003F970 ?setTrimRatio@StabilizerBase@videostab@cv@@QAEXM@Z
       1895  766 00059850 ?setWarper@Stitcher@cv@@QAEXU?$Ptr@VWarperCreator@cv@@@2@@Z
       1896  767 000598D0 ?setWaveCorrectKind@Stitcher@cv@@QAEXW4WaveCorrectKind@detail@2@@Z
       1897  768 000598E0 ?setWaveCorrection@Stitcher@cv@@QAEX_N@Z
       1898  769 0003F950 ?setWeight1@LpMotionStabilizer@videostab@cv@@QAEXM@Z
       1899  76A 0003F5A0 ?setWeight2@LpMotionStabilizer@videostab@cv@@QAEXM@Z
       1900  76B 0003F990 ?setWeight3@LpMotionStabilizer@videostab@cv@@QAEXM@Z
       1901  76C 0003F9B0 ?setWeight4@LpMotionStabilizer@videostab@cv@@QAEXM@Z
       1902  76D 0003F300 ?setWinSize@PyrLkOptFlowEstimatorBase@videostab@cv@@UAEXV?$Size_@H@3@@Z
       1903  76E 0003F9D0 ?setWobbleSuppressor@TwoPassStabilizer@videostab@cv@@QAEXU?$Ptr@VWobbleSuppressorBase@videostab@cv@@@3@@Z
       1904  76F 000598F0 ?sharpness@FeatherBlender@detail@cv@@QBEMXZ
       1905  770 000202B0 ?size@GpuMat@cuda@cv@@QBE?AV?$Size_@H@3@XZ
       1906  771 000202B0 ?size@HostMem@cuda@cv@@QBE?AV?$Size_@H@3@XZ
       1907  772 00012F40 ?size@Range@cv@@QBEHXZ
       1908  773 00012F50 ?size@SparseMat@cv@@QBEHH@Z
       1909  774 00012F70 ?size@SparseMat@cv@@QBEPBHXZ
       1910  775 0000FA60 ?size@String@cv@@QBEIXZ
       1911  776 00012F80 ?solveZ@SVD@cv@@SAXABV_InputArray@2@ABV_OutputArray@2@@Z
       1912  777 00702E70 ?stabilizationMotions@InpainterBase@videostab@cv@@UBEABV?$vector@VMat@cv@@V?$allocator@VMat@cv@@@std@@@std@@XZ
       1913  778 00702E70 ?stabilizationMotions@WobbleSuppressorBase@videostab@cv@@UBEABV?$vector@VMat@cv@@V?$allocator@VMat@cv@@@std@@@std@@XZ
       1914  779 0003FAE0 ?stabilizedFrames@InpainterBase@videostab@cv@@UBEABV?$vector@VMat@cv@@V?$allocator@VMat@cv@@@std@@@std@@XZ
       1915  77A 002DA300 ?stdev@GaussianMotionFilter@videostab@cv@@QBEMXZ
       1916  77B 0003FD90 ?stdevThresh@ConsistentMosaicInpainter@videostab@cv@@QBEMXZ
       1917  77C 000202D0 ?step1@GpuMat@cuda@cv@@QBEIXZ
       1918  77D 000202D0 ?step1@HostMem@cuda@cv@@QBEIXZ
       1919  77E 000131B0 ?step1@Mat@cv@@QBEIH@Z
       1920  77F 000131E0 ?step1@UMat@cv@@QBEIH@Z
       1921  780 00013210 ?substr@String@cv@@QBE?AV12@II@Z
       1922  781 000202F0 ?supports@DeviceInfo@cuda@cv@@QBE_NW4FeatureSet@23@@Z
       1923  782 00020320 ?swap@GpuMat@cuda@cv@@QAEXAAV123@@Z
       1924  783 00020320 ?swap@HostMem@cuda@cv@@QAEXAAV123@@Z
       1925  784 00013270 ?swap@String@cv@@QAEXAAV12@@Z
       1926  785 000132A0 ?tempCopiedUMat@UMatData@cv@@QBE_NXZ
       1927  786 000132B0 ?tempUMat@UMatData@cv@@QBE_NXZ
       1928  787 00059900 ?termCriteria@BundleAdjusterBase@detail@cv@@QAE?AVTermCriteria@3@XZ
       1929  788 000B8930 ?this_type_does_not_support_comparisons@Stream@cuda@cv@@ABEXXZ
       1930  789 000132C0 ?toLowerCase@String@cv@@QBE?AV12@XZ
       1931  78A 00013370 ?total@Mat@cv@@QBEIXZ
       1932  78B 000133A0 ?total@UMat@cv@@QBEIXZ
       1933  78C 000203A0 ?totalMemory@DeviceInfo@cuda@cv@@QBEIXZ
       1934  78D 0041C7D0 ?trimRatio@LpMotionStabilizer@videostab@cv@@QBEMXZ
       1935  78E 0003FB20 ?trimRatio@StabilizerBase@videostab@cv@@QBEMXZ
       1936  78F 000203C0 ?type@GpuMat@cuda@cv@@QBEHXZ
       1937  790 000203C0 ?type@HostMem@cuda@cv@@QBEHXZ
       1938  791 000203C0 ?type@Mat@cv@@QBEHXZ
       1939  792 000203C0 ?type@SparseMat@cv@@QBEHXZ
       1940  793 000203C0 ?type@UMat@cv@@QBEHXZ
       1941  794 000133D0 ?uniform@RNG@cv@@QAEHHH@Z
       1942  795 00013430 ?uniform@RNG@cv@@QAEMMM@Z
       1943  796 000134A0 ?uniform@RNG@cv@@QAENNN@Z
       1944  797 00059940 ?warp@?$RotationWarperBase@UCompressedRectilinearPortraitProjector@detail@cv@@@detail@cv@@UAE?AV?$Point_@H@3@ABV_InputArray@3@00HHABV_OutputArray@3@@Z
       1945  798 00059940 ?warp@?$RotationWarperBase@UCompressedRectilinearProjector@detail@cv@@@detail@cv@@UAE?AV?$Point_@H@3@ABV_InputArray@3@00HHABV_OutputArray@3@@Z
       1946  799 00059940 ?warp@?$RotationWarperBase@UCylindricalPortraitProjector@detail@cv@@@detail@cv@@UAE?AV?$Point_@H@3@ABV_InputArray@3@00HHABV_OutputArray@3@@Z
       1947  79A 00059940 ?warp@?$RotationWarperBase@UCylindricalProjector@detail@cv@@@detail@cv@@UAE?AV?$Point_@H@3@ABV_InputArray@3@00HHABV_OutputArray@3@@Z
       1948  79B 00059940 ?warp@?$RotationWarperBase@UFisheyeProjector@detail@cv@@@detail@cv@@UAE?AV?$Point_@H@3@ABV_InputArray@3@00HHABV_OutputArray@3@@Z
       1949  79C 00059940 ?warp@?$RotationWarperBase@UMercatorProjector@detail@cv@@@detail@cv@@UAE?AV?$Point_@H@3@ABV_InputArray@3@00HHABV_OutputArray@3@@Z
       1950  79D 00059940 ?warp@?$RotationWarperBase@UPaniniPortraitProjector@detail@cv@@@detail@cv@@UAE?AV?$Point_@H@3@ABV_InputArray@3@00HHABV_OutputArray@3@@Z
       1951  79E 00059940 ?warp@?$RotationWarperBase@UPaniniProjector@detail@cv@@@detail@cv@@UAE?AV?$Point_@H@3@ABV_InputArray@3@00HHABV_OutputArray@3@@Z
       1952  79F 00059940 ?warp@?$RotationWarperBase@UPlanePortraitProjector@detail@cv@@@detail@cv@@UAE?AV?$Point_@H@3@ABV_InputArray@3@00HHABV_OutputArray@3@@Z
       1953  7A0 00059940 ?warp@?$RotationWarperBase@UPlaneProjector@detail@cv@@@detail@cv@@UAE?AV?$Point_@H@3@ABV_InputArray@3@00HHABV_OutputArray@3@@Z
       1954  7A1 00059940 ?warp@?$RotationWarperBase@USphericalPortraitProjector@detail@cv@@@detail@cv@@UAE?AV?$Point_@H@3@ABV_InputArray@3@00HHABV_OutputArray@3@@Z
       1955  7A2 00059940 ?warp@?$RotationWarperBase@USphericalProjector@detail@cv@@@detail@cv@@UAE?AV?$Point_@H@3@ABV_InputArray@3@00HHABV_OutputArray@3@@Z
       1956  7A3 00059940 ?warp@?$RotationWarperBase@UStereographicProjector@detail@cv@@@detail@cv@@UAE?AV?$Point_@H@3@ABV_InputArray@3@00HHABV_OutputArray@3@@Z
       1957  7A4 00059940 ?warp@?$RotationWarperBase@UTransverseMercatorProjector@detail@cv@@@detail@cv@@UAE?AV?$Point_@H@3@ABV_InputArray@3@00HHABV_OutputArray@3@@Z
       1958  7A5 00059BA0 ?warp@CylindricalWarperGpu@detail@cv@@UAE?AV?$Point_@H@3@ABV_InputArray@3@00HHABV_OutputArray@3@@Z
       1959  7A6 00059BF0 ?warp@PlaneWarperGpu@detail@cv@@UAE?AV?$Point_@H@3@ABV_InputArray@3@000HHABV_OutputArray@3@@Z
       1960  7A7 00059C40 ?warp@PlaneWarperGpu@detail@cv@@UAE?AV?$Point_@H@3@ABV_InputArray@3@00HHABV_OutputArray@3@@Z
       1961  7A8 00059BA0 ?warp@SphericalWarperGpu@detail@cv@@UAE?AV?$Point_@H@3@ABV_InputArray@3@00HHABV_OutputArray@3@@Z
       1962  7A9 00059C90 ?warpBackward@?$RotationWarperBase@UCompressedRectilinearPortraitProjector@detail@cv@@@detail@cv@@UAEXABV_InputArray@3@00HHV?$Size_@H@3@ABV_OutputArray@3@@Z
       1963  7AA 0005A290 ?warpBackward@?$RotationWarperBase@UCompressedRectilinearProjector@detail@cv@@@detail@cv@@UAEXABV_InputArray@3@00HHV?$Size_@H@3@ABV_OutputArray@3@@Z
       1964  7AB 0005A880 ?warpBackward@?$RotationWarperBase@UCylindricalPortraitProjector@detail@cv@@@detail@cv@@UAEXABV_InputArray@3@00HHV?$Size_@H@3@ABV_OutputArray@3@@Z
       1965  7AC 0005AE10 ?warpBackward@?$RotationWarperBase@UCylindricalProjector@detail@cv@@@detail@cv@@UAEXABV_InputArray@3@00HHV?$Size_@H@3@ABV_OutputArray@3@@Z
       1966  7AD 0005B380 ?warpBackward@?$RotationWarperBase@UFisheyeProjector@detail@cv@@@detail@cv@@UAEXABV_InputArray@3@00HHV?$Size_@H@3@ABV_OutputArray@3@@Z
       1967  7AE 0005B940 ?warpBackward@?$RotationWarperBase@UMercatorProjector@detail@cv@@@detail@cv@@UAEXABV_InputArray@3@00HHV?$Size_@H@3@ABV_OutputArray@3@@Z
       1968  7AF 0005BF00 ?warpBackward@?$RotationWarperBase@UPaniniPortraitProjector@detail@cv@@@detail@cv@@UAEXABV_InputArray@3@00HHV?$Size_@H@3@ABV_OutputArray@3@@Z
       1969  7B0 0005C560 ?warpBackward@?$RotationWarperBase@UPaniniProjector@detail@cv@@@detail@cv@@UAEXABV_InputArray@3@00HHV?$Size_@H@3@ABV_OutputArray@3@@Z
       1970  7B1 0005CBC0 ?warpBackward@?$RotationWarperBase@UPlanePortraitProjector@detail@cv@@@detail@cv@@UAEXABV_InputArray@3@00HHV?$Size_@H@3@ABV_OutputArray@3@@Z
       1971  7B2 0005D0C0 ?warpBackward@?$RotationWarperBase@UPlaneProjector@detail@cv@@@detail@cv@@UAEXABV_InputArray@3@00HHV?$Size_@H@3@ABV_OutputArray@3@@Z
       1972  7B3 0005D590 ?warpBackward@?$RotationWarperBase@USphericalPortraitProjector@detail@cv@@@detail@cv@@UAEXABV_InputArray@3@00HHV?$Size_@H@3@ABV_OutputArray@3@@Z
       1973  7B4 0005DB40 ?warpBackward@?$RotationWarperBase@USphericalProjector@detail@cv@@@detail@cv@@UAEXABV_InputArray@3@00HHV?$Size_@H@3@ABV_OutputArray@3@@Z
       1974  7B5 0005E0E0 ?warpBackward@?$RotationWarperBase@UStereographicProjector@detail@cv@@@detail@cv@@UAEXABV_InputArray@3@00HHV?$Size_@H@3@ABV_OutputArray@3@@Z
       1975  7B6 0005E6F0 ?warpBackward@?$RotationWarperBase@UTransverseMercatorProjector@detail@cv@@@detail@cv@@UAEXABV_InputArray@3@00HHV?$Size_@H@3@ABV_OutputArray@3@@Z
       1976  7B7 0005ED30 ?warpPoint@?$RotationWarperBase@UCompressedRectilinearPortraitProjector@detail@cv@@@detail@cv@@UAE?AV?$Point_@M@3@ABV43@ABV_InputArray@3@1@Z
       1977  7B8 0005EF80 ?warpPoint@?$RotationWarperBase@UCompressedRectilinearProjector@detail@cv@@@detail@cv@@UAE?AV?$Point_@M@3@ABV43@ABV_InputArray@3@1@Z
       1978  7B9 0005F1C0 ?warpPoint@?$RotationWarperBase@UCylindricalPortraitProjector@detail@cv@@@detail@cv@@UAE?AV?$Point_@M@3@ABV43@ABV_InputArray@3@1@Z
       1979  7BA 0005F3A0 ?warpPoint@?$RotationWarperBase@UCylindricalProjector@detail@cv@@@detail@cv@@UAE?AV?$Point_@M@3@ABV43@ABV_InputArray@3@1@Z
       1980  7BB 0005F570 ?warpPoint@?$RotationWarperBase@UFisheyeProjector@detail@cv@@@detail@cv@@UAE?AV?$Point_@M@3@ABV43@ABV_InputArray@3@1@Z
       1981  7BC 0005F7A0 ?warpPoint@?$RotationWarperBase@UMercatorProjector@detail@cv@@@detail@cv@@UAE?AV?$Point_@M@3@ABV43@ABV_InputArray@3@1@Z
       1982  7BD 0005F9B0 ?warpPoint@?$RotationWarperBase@UPaniniPortraitProjector@detail@cv@@@detail@cv@@UAE?AV?$Point_@M@3@ABV43@ABV_InputArray@3@1@Z
       1983  7BE 0005FC50 ?warpPoint@?$RotationWarperBase@UPaniniProjector@detail@cv@@@detail@cv@@UAE?AV?$Point_@M@3@ABV43@ABV_InputArray@3@1@Z
       1984  7BF 0005FEF0 ?warpPoint@?$RotationWarperBase@UPlanePortraitProjector@detail@cv@@@detail@cv@@UAE?AV?$Point_@M@3@ABV43@ABV_InputArray@3@1@Z
       1985  7C0 00060080 ?warpPoint@?$RotationWarperBase@UPlaneProjector@detail@cv@@@detail@cv@@UAE?AV?$Point_@M@3@ABV43@ABV_InputArray@3@1@Z
       1986  7C1 00060200 ?warpPoint@?$RotationWarperBase@USphericalPortraitProjector@detail@cv@@@detail@cv@@UAE?AV?$Point_@M@3@ABV43@ABV_InputArray@3@1@Z
       1987  7C2 00060410 ?warpPoint@?$RotationWarperBase@USphericalProjector@detail@cv@@@detail@cv@@UAE?AV?$Point_@M@3@ABV43@ABV_InputArray@3@1@Z
       1988  7C3 00060610 ?warpPoint@?$RotationWarperBase@UStereographicProjector@detail@cv@@@detail@cv@@UAE?AV?$Point_@M@3@ABV43@ABV_InputArray@3@1@Z
       1989  7C4 00060880 ?warpPoint@?$RotationWarperBase@UTransverseMercatorProjector@detail@cv@@@detail@cv@@UAE?AV?$Point_@M@3@ABV43@ABV_InputArray@3@1@Z
       1990  7C5 00060B20 ?warpRoi@?$RotationWarperBase@UCompressedRectilinearPortraitProjector@detail@cv@@@detail@cv@@UAE?AV?$Rect_@H@3@V?$Size_@H@3@ABV_InputArray@3@1@Z
       1991  7C6 00060B20 ?warpRoi@?$RotationWarperBase@UCompressedRectilinearProjector@detail@cv@@@detail@cv@@UAE?AV?$Rect_@H@3@V?$Size_@H@3@ABV_InputArray@3@1@Z
       1992  7C7 00060B20 ?warpRoi@?$RotationWarperBase@UCylindricalPortraitProjector@detail@cv@@@detail@cv@@UAE?AV?$Rect_@H@3@V?$Size_@H@3@ABV_InputArray@3@1@Z
       1993  7C8 00060B20 ?warpRoi@?$RotationWarperBase@UCylindricalProjector@detail@cv@@@detail@cv@@UAE?AV?$Rect_@H@3@V?$Size_@H@3@ABV_InputArray@3@1@Z
       1994  7C9 00060B20 ?warpRoi@?$RotationWarperBase@UFisheyeProjector@detail@cv@@@detail@cv@@UAE?AV?$Rect_@H@3@V?$Size_@H@3@ABV_InputArray@3@1@Z
       1995  7CA 00060B20 ?warpRoi@?$RotationWarperBase@UMercatorProjector@detail@cv@@@detail@cv@@UAE?AV?$Rect_@H@3@V?$Size_@H@3@ABV_InputArray@3@1@Z
       1996  7CB 00060B20 ?warpRoi@?$RotationWarperBase@UPaniniPortraitProjector@detail@cv@@@detail@cv@@UAE?AV?$Rect_@H@3@V?$Size_@H@3@ABV_InputArray@3@1@Z
       1997  7CC 00060B20 ?warpRoi@?$RotationWarperBase@UPaniniProjector@detail@cv@@@detail@cv@@UAE?AV?$Rect_@H@3@V?$Size_@H@3@ABV_InputArray@3@1@Z
       1998  7CD 00060B20 ?warpRoi@?$RotationWarperBase@UPlanePortraitProjector@detail@cv@@@detail@cv@@UAE?AV?$Rect_@H@3@V?$Size_@H@3@ABV_InputArray@3@1@Z
       1999  7CE 00060B20 ?warpRoi@?$RotationWarperBase@UPlaneProjector@detail@cv@@@detail@cv@@UAE?AV?$Rect_@H@3@V?$Size_@H@3@ABV_InputArray@3@1@Z
       2000  7CF 00060B20 ?warpRoi@?$RotationWarperBase@USphericalPortraitProjector@detail@cv@@@detail@cv@@UAE?AV?$Rect_@H@3@V?$Size_@H@3@ABV_InputArray@3@1@Z
       2001  7D0 00060B20 ?warpRoi@?$RotationWarperBase@USphericalProjector@detail@cv@@@detail@cv@@UAE?AV?$Rect_@H@3@V?$Size_@H@3@ABV_InputArray@3@1@Z
       2002  7D1 00060B20 ?warpRoi@?$RotationWarperBase@UStereographicProjector@detail@cv@@@detail@cv@@UAE?AV?$Rect_@H@3@V?$Size_@H@3@ABV_InputArray@3@1@Z
       2003  7D2 00060B20 ?warpRoi@?$RotationWarperBase@UTransverseMercatorProjector@detail@cv@@@detail@cv@@UAE?AV?$Rect_@H@3@V?$Size_@H@3@ABV_InputArray@3@1@Z
       2004  7D3 00060CD0 ?warper@Stitcher@cv@@QAE?AU?$Ptr@VWarperCreator@cv@@@2@XZ
       2005  7D4 00060CD0 ?warper@Stitcher@cv@@QBE?BU?$Ptr@VWarperCreator@cv@@@2@XZ
       2006  7D5 00384910 ?waveCorrectKind@Stitcher@cv@@QBE?AW4WaveCorrectKind@detail@2@XZ
       2007  7D6 00060D40 ?waveCorrection@Stitcher@cv@@QBE_NXZ
       2008  7D7 002DA2F0 ?weight1@LpMotionStabilizer@videostab@cv@@QBEMXZ
       2009  7D8 0003FD80 ?weight2@LpMotionStabilizer@videostab@cv@@QBEMXZ
       2010  7D9 0003FD90 ?weight3@LpMotionStabilizer@videostab@cv@@QBEMXZ
       2011  7DA 0003FDA0 ?weight4@LpMotionStabilizer@videostab@cv@@QBEMXZ
       2012  7DB 0003E2D0 ?winSize@PyrLkOptFlowEstimatorBase@videostab@cv@@UBE?AV?$Size_@H@3@XZ
       2013  7DC 0003FDB0 ?wobbleSuppressor@TwoPassStabilizer@videostab@cv@@QBE?AU?$Ptr@VWobbleSuppressorBase@videostab@cv@@@3@XZ
       2014  7DD 00060D50 ?workScale@Stitcher@cv@@QBENXZ
       2015  7DE 0062C3B0 ?write@Algorithm@cv@@UBEXAAVFileStorage@2@@Z
       2016  7DF 00031D40 CvBOWImgDescriptorExtractorCompute
       2017  7E0 00031D80 CvBOWImgDescriptorExtractorCreate
       2018  7E1 0002FEE0 CvBOWImgDescriptorExtractorRelease
       2019  7E2 00031E90 CvBOWImgDescriptorExtractorSetVocabulary
       2020  7E3 00031EA0 CvBOWKMeansTrainerAdd
       2021  7E4 00031EB0 CvBOWKMeansTrainerCluster
       2022  7E5 00031F40 CvBOWKMeansTrainerCreate
       2023  7E6 00031FE0 CvBOWKMeansTrainerGetDescriptorCount
       2024  7E7 0002FEE0 CvBOWKMeansTrainerRelease
       2025  7E8 00043FB0 CvBackgroundSubtractorGMGCreate
       2026  7E9 0002FEE0 CvBackgroundSubtractorGMGRelease
       2027  7EA 0002D900 CvBackgroundSubtractorKNNCreate
       2028  7EB 0002FEE0 CvBackgroundSubtractorKNNRelease
       2029  7EC 0002D9B0 CvBackgroundSubtractorMOG2Create
       2030  7ED 0002FEE0 CvBackgroundSubtractorMOG2Release
       2031  7EE 00044060 CvBackgroundSubtractorMOGCreate
       2032  7EF 0002FEE0 CvBackgroundSubtractorMOGRelease
       2033  7F0 0002DA60 CvBackgroundSubtractorUpdate
       2034  7F1 00031250 CvCascadeClassifierCreate
       2035  7F2 000312D0 CvCascadeClassifierDetectMultiScale
       2036  7F3 00031320 CvCascadeClassifierGetOriginalWindowSize
       2037  7F4 00031350 CvCascadeClassifierIsOldFormatCascade
       2038  7F5 00031360 CvCascadeClassifierRelease
       2039  7F6 00031FF0 CvDescriptorMatcherAdd
       2040  7F7 006A2010 CvDescriptorMatcherGetAlgorithm
       2041  7F8 00032000 CvDescriptorMatcherKnnMatch
       2042  7F9 0002FC80 CvEMDefaultCreate
       2043  7FA 0002FD20 CvEMPredict
       2044  7FB 0002FEE0 CvEMRelease
       2045  7FC 0002FD80 CvEMTrainE
       2046  7FD 0002FDF0 CvEMTrainM
       2047  7FE 00041520 CvERFilterNM1Create
       2048  7FF 000416A0 CvERFilterNM2Create
       2049  800 0002FEE0 CvERFilterRelease
       2050  801 00042830 CvERFilterRun
       2051  802 000417D0 CvERGrouping
       2052  803 000426E0 CvEigenFaceRecognizerCreate
       2053  804 000427D0 CvFaceRecognizerLoad
       2054  805 000427E0 CvFaceRecognizerPredict
       2055  806 0002FEE0 CvFaceRecognizerRelease
       2056  807 00031230 CvFaceRecognizerSave
       2057  808 00042830 CvFaceRecognizerTrain
       2058  809 00042850 CvFaceRecognizerUpdate
       2059  80A 00032030 CvFeature2DCompute
       2060  80B 00032050 CvFeature2DDetect
       2061  80C 00032070 CvFeature2DDetectAndCompute
       2062  80D 000320A0 CvFeature2DGetAlgorithm
       2063  80E 000320C0 CvFeature2DGetDescriptorSize
       2064  80F 00042870 CvFisherFaceRecognizerCreate
       2065  810 0002E820 CvFlannIndexKnnSearch
       2066  811 0002E8A0 CvFlannIndexRadiusSearch
       2067  812 0002FEE0 CvFlannIndexRelease
       2068  813 00031390 CvHOGDescriptorCompute
       2069  814 00031450 CvHOGDescriptorCreate
       2070  815 00031540 CvHOGDescriptorCreateDefault
       2071  816 000315C0 CvHOGDescriptorDetectMultiScale
       2072  817 00031620 CvHOGDescriptorGetDescriptorSize
       2073  818 00031630 CvHOGDescriptorPeopleDetectorCreate
       2074  819 000316D0 CvHOGDescriptorRelease
       2075  81A 000316F0 CvHOGSetSVMDetector
       2076  81B 0002FE40 CvKNearestCreate
       2077  81C 0002FEE0 CvKNearestRelease
       2078  81D 00042960 CvLBPHFaceRecognizerCreate
       2079  81E 0002FF00 CvNormalBayesClassifierDefaultCreate
       2080  81F 0002FEE0 CvNormalBayesClassifierRelease
       2081  820 0002FFA0 CvSVMDefaultCreate
       2082  821 00030040 CvSVMGetDefaultGrid
       2083  822 00030070 CvSVMGetSupportVectors
       2084  823 0002FEE0 CvSVMRelease
       2085  824 00030110 CvSVMTrainAuto
       2086  825 00033E80 CvStereoBMCreate
       2087  826 00033F60 CvStereoMatcherCompute
       2088  827 0002FEE0 CvStereoMatcherRelease
       2089  828 00033F80 CvStereoSGBMCreate
       2090  829 0002FEE0 CvStereoSGBMRelease
       2091  82A 00060D60 CvStitcherCreateDefault
       2092  82B 00060DF0 CvStitcherRelease
       2093  82C 00060E50 CvStitcherSetFeaturesFinder
       2094  82D 00060F30 CvStitcherStitch
       2095  82E 00014010 DataLoggerCreate
       2096  82F 00014090 DataLoggerLog
       2097  830 000140C0 DataLoggerRegisterCallback
       2098  831 000140D0 DataLoggerRelease
       2099  832 0052CAB0 GTIFFree
       2100  833 0052CE80 GTIFKeySet
       2101  834 0052C6B0 GTIFNew
       2102  835 0052C6E0 GTIFNewSimpleTags
       2103  836 0052C710 GTIFNewWithMethods
       2104  837 0052D2C0 GTIFSetSimpleTagsMethods
       2105  838 0052CB30 GTIFWriteKeys
       2106  839 0003FE30 GaussianMotionFilterCreate
       2107  83A 0002FEE0 GaussianMotionFilterRelease
       2108  83B 0003FEF0 OnePassStabilizerCreate
       2109  83C 0002FEE0 OnePassStabilizerRelease
       2110  83D 0003FF00 OnePassStabilizerSetMotionFilter
       2111  83E 00030D90 OpenniGetColorPoints
       2112  83F 0052D2E0 ST_Create
       2113  840 0052D2F0 ST_Destroy
       2114  841 0052D340 ST_GetKey
       2115  842 0052D3C0 ST_SetKey
       2116  843 0052D4F0 ST_TagType
       2117  844 00030260 StatModelClear
       2118  845 00030270 StatModelPredict
       2119  846 00031230 StatModelSave
       2120  847 000302A0 StatModelTrain
       2121  848 000302C0 StatModelTrainWithData
       2122  849 00061960 TessBaseAPIAnalyseLayout
       2123  84A 00061970 TessBaseAPICreate
       2124  84B 00061A00 TessBaseAPIExtractResult
       2125  84C 00061B10 TessBaseAPIGetOpenCLDevice
       2126  84D 00061B20 TessBaseAPIGetPageSegMode
       2127  84E 00061B30 TessBaseAPIGetUTF8Text
       2128  84F 00061B70 TessBaseAPIInit
       2129  850 00061B90 TessBaseAPIRecognizeArray
       2130  851 00061C90 TessBaseAPIRelease
       2131  852 00061CB0 TessBaseAPISetPageSegMode
       2132  853 00061CC0 TessBaseAPISetVariable
       2133  854 00061CE0 TessPageIteratorGetBaseLine
       2134  855 00061D00 TessPageIteratorGetOrientation
       2135  856 0002FEE0 TessPageIteratorRelease
       2136  857 00061D20 TesseractGetVersion
       2137  858 0003FFF0 TwoPassStabilizerCreate
       2138  859 0002FEE0 TwoPassStabilizerRelease
       2139  85A 00022BB0 VectorOfByteClear
       2140  85B 0001C030 VectorOfByteCopyData
       2141  85C 00020450 VectorOfByteCreate
       2142  85D 0001C050 VectorOfByteCreateSize
       2143  85E 0001C0D0 VectorOfByteGetItem
       2144  85F 0001C100 VectorOfByteGetItemPtr
       2145  860 0001C130 VectorOfByteGetSize
       2146  861 000259E0 VectorOfByteGetStartAddress
       2147  862 0001C140 VectorOfBytePush
       2148  863 0001C150 VectorOfBytePushMulti
       2149  864 0001D950 VectorOfByteRelease
       2150  865 00022BB0 VectorOfColorPointClear
       2151  866 00023E20 VectorOfColorPointCopyData
       2152  867 00020450 VectorOfColorPointCreate
       2153  868 0001C890 VectorOfColorPointCreateSize
       2154  869 0001C910 VectorOfColorPointGetItem
       2155  86A 0001D440 VectorOfColorPointGetItemPtr
       2156  86B 0001D470 VectorOfColorPointGetSize
       2157  86C 000259E0 VectorOfColorPointGetStartAddress
       2158  86D 0001C950 VectorOfColorPointPush
       2159  86E 0001C960 VectorOfColorPointPushMulti
       2160  86F 0001D950 VectorOfColorPointRelease
       2161  870 0001CFB0 VectorOfCvStringClear
       2162  871 00022BC0 VectorOfCvStringCopyData
       2163  872 00020450 VectorOfCvStringCreate
       2164  873 0001CFF0 VectorOfCvStringCreateSize
       2165  874 00022C70 VectorOfCvStringGetItemPtr
       2166  875 00022CA0 VectorOfCvStringGetSize
       2167  876 000259E0 VectorOfCvStringGetStartAddress
       2168  877 0001D070 VectorOfCvStringPush
       2169  878 0001D080 VectorOfCvStringPushMulti
       2170  879 0001D0D0 VectorOfCvStringRelease
       2171  87A 00022BB0 VectorOfDMatchClear
       2172  87B 00023E20 VectorOfDMatchCopyData
       2173  87C 00020450 VectorOfDMatchCreate
       2174  87D 0001D3C0 VectorOfDMatchCreateSize
       2175  87E 0001C910 VectorOfDMatchGetItem
       2176  87F 0001D440 VectorOfDMatchGetItemPtr
       2177  880 0001D470 VectorOfDMatchGetSize
       2178  881 000259E0 VectorOfDMatchGetStartAddress
       2179  882 0001C950 VectorOfDMatchPush
       2180  883 0001B8F0 VectorOfDMatchPushMatrix
       2181  884 0001D480 VectorOfDMatchPushMulti
       2182  885 0001D950 VectorOfDMatchRelease
       2183  886 0001BAF0 VectorOfDMatchToMat
       2184  887 00022BB0 VectorOfDoubleClear
       2185  888 00022BC0 VectorOfDoubleCopyData
       2186  889 00020450 VectorOfDoubleCreate
       2187  88A 0001D840 VectorOfDoubleCreateSize
       2188  88B 0001D8C0 VectorOfDoubleGetItem
       2189  88C 00022C70 VectorOfDoubleGetItemPtr
       2190  88D 00022CA0 VectorOfDoubleGetSize
       2191  88E 000259E0 VectorOfDoubleGetStartAddress
       2192  88F 0001D8F0 VectorOfDoublePush
       2193  890 0001D900 VectorOfDoublePushMulti
       2194  891 0001D950 VectorOfDoubleRelease
       2195  892 00022BB0 VectorOfERStatClear
       2196  893 0001E540 VectorOfERStatCopyData
       2197  894 00020450 VectorOfERStatCreate
       2198  895 0001E580 VectorOfERStatCreateSize
       2199  896 0001E600 VectorOfERStatGetItem
       2200  897 0001E650 VectorOfERStatGetItemPtr
       2201  898 0001E6A0 VectorOfERStatGetSize
       2202  899 000259E0 VectorOfERStatGetStartAddress
       2203  89A 0001E6C0 VectorOfERStatPush
       2204  89B 0001E6D0 VectorOfERStatPushMulti
       2205  89C 0001D950 VectorOfERStatRelease
       2206  89D 00022BB0 VectorOfFloatClear
       2207  89E 00020860 VectorOfFloatCopyData
       2208  89F 00020450 VectorOfFloatCreate
       2209  8A0 0001E8A0 VectorOfFloatCreateSize
       2210  8A1 00020910 VectorOfFloatGetItem
       2211  8A2 00020940 VectorOfFloatGetItemPtr
       2212  8A3 00022A40 VectorOfFloatGetSize
       2213  8A4 000259E0 VectorOfFloatGetStartAddress
       2214  8A5 00020970 VectorOfFloatPush
       2215  8A6 0001E920 VectorOfFloatPushMulti
       2216  8A7 0001D950 VectorOfFloatRelease
       2217  8A8 000203D0 VectorOfGpuMatClear
       2218  8A9 00020410 VectorOfGpuMatCopyData
       2219  8AA 00020450 VectorOfGpuMatCreate
       2220  8AB 000204D0 VectorOfGpuMatCreateSize
       2221  8AC 00020550 VectorOfGpuMatGetItemPtr
       2222  8AD 00020590 VectorOfGpuMatGetSize
       2223  8AE 000259E0 VectorOfGpuMatGetStartAddress
       2224  8AF 000205B0 VectorOfGpuMatPush
       2225  8B0 000205C0 VectorOfGpuMatPushMulti
       2226  8B1 00020620 VectorOfGpuMatRelease
       2227  8B2 00022BB0 VectorOfIntClear
       2228  8B3 00020860 VectorOfIntCopyData
       2229  8B4 00020450 VectorOfIntCreate
       2230  8B5 00020890 VectorOfIntCreateSize
       2231  8B6 00020910 VectorOfIntGetItem
       2232  8B7 00020940 VectorOfIntGetItemPtr
       2233  8B8 00022A40 VectorOfIntGetSize
       2234  8B9 000259E0 VectorOfIntGetStartAddress
       2235  8BA 00020970 VectorOfIntPush
       2236  8BB 00020980 VectorOfIntPushMulti
       2237  8BC 0001D950 VectorOfIntRelease
       2238  8BD 00022BB0 VectorOfKeyPointClear
       2239  8BE 000210E0 VectorOfKeyPointCopyData
       2240  8BF 00020450 VectorOfKeyPointCreate
       2241  8C0 00021130 VectorOfKeyPointCreateSize
       2242  8C1 0001BCB0 VectorOfKeyPointFilterByImageBorder
       2243  8C2 0001BCE0 VectorOfKeyPointFilterByKeypointSize
       2244  8C3 0001BD10 VectorOfKeyPointFilterByPixelsMask
       2245  8C4 000211B0 VectorOfKeyPointGetItem
       2246  8C5 00021230 VectorOfKeyPointGetItemPtr
       2247  8C6 00021280 VectorOfKeyPointGetSize
       2248  8C7 000259E0 VectorOfKeyPointGetStartAddress
       2249  8C8 000212A0 VectorOfKeyPointPush
       2250  8C9 000212B0 VectorOfKeyPointPushMulti
       2251  8CA 0001D950 VectorOfKeyPointRelease
       2252  8CB 00021960 VectorOfMatClear
       2253  8CC 00021990 VectorOfMatCopyData
       2254  8CD 00020450 VectorOfMatCreate
       2255  8CE 000219E0 VectorOfMatCreateSize
       2256  8CF 00021A60 VectorOfMatGetItemPtr
       2257  8D0 00021AB0 VectorOfMatGetSize
       2258  8D1 000259E0 VectorOfMatGetStartAddress
       2259  8D2 00021AD0 VectorOfMatPush
       2260  8D3 00021AE0 VectorOfMatPushMulti
       2261  8D4 00021AF0 VectorOfMatRelease
       2262  8D5 00022BB0 VectorOfObjectDetectionClear
       2263  8D6 00024BA0 VectorOfObjectDetectionCopyData
       2264  8D7 00020450 VectorOfObjectDetectionCreate
       2265  8D8 00022050 VectorOfObjectDetectionCreateSize
       2266  8D9 000220D0 VectorOfObjectDetectionGetItem
       2267  8DA 00022140 VectorOfObjectDetectionGetItemPtr
       2268  8DB 00024650 VectorOfObjectDetectionGetSize
       2269  8DC 000259E0 VectorOfObjectDetectionGetStartAddress
       2270  8DD 00024C60 VectorOfObjectDetectionPush
       2271  8DE 00022180 VectorOfObjectDetectionPushMulti
       2272  8DF 0001D950 VectorOfObjectDetectionRelease
       2273  8E0 00022980 VectorOfOclPlatformInfoClear
       2274  8E1 00020860 VectorOfOclPlatformInfoCopyData
       2275  8E2 00020450 VectorOfOclPlatformInfoCreate
       2276  8E3 000229C0 VectorOfOclPlatformInfoCreateSize
       2277  8E4 00020940 VectorOfOclPlatformInfoGetItemPtr
       2278  8E5 00022A40 VectorOfOclPlatformInfoGetSize
       2279  8E6 000259E0 VectorOfOclPlatformInfoGetStartAddress
       2280  8E7 00022A50 VectorOfOclPlatformInfoPush
       2281  8E8 00022A60 VectorOfOclPlatformInfoPushMulti
       2282  8E9 00022AB0 VectorOfOclPlatformInfoRelease
       2283  8EA 00022BB0 VectorOfPoint3D32FClear
       2284  8EB 00026AC0 VectorOfPoint3D32FCopyData
       2285  8EC 00020450 VectorOfPoint3D32FCreate
       2286  8ED 000233E0 VectorOfPoint3D32FCreateSize
       2287  8EE 00023460 VectorOfPoint3D32FGetItem
       2288  8EF 000234B0 VectorOfPoint3D32FGetItemPtr
       2289  8F0 000234F0 VectorOfPoint3D32FGetSize
       2290  8F1 000259E0 VectorOfPoint3D32FGetStartAddress
       2291  8F2 00023510 VectorOfPoint3D32FPush
       2292  8F3 00023520 VectorOfPoint3D32FPushMulti
       2293  8F4 0001D950 VectorOfPoint3D32FRelease
       2294  8F5 00022BB0 VectorOfPointClear
       2295  8F6 00022BC0 VectorOfPointCopyData
       2296  8F7 00020450 VectorOfPointCreate
       2297  8F8 00022BF0 VectorOfPointCreateSize
       2298  8F9 00022BB0 VectorOfPointFClear
       2299  8FA 00022BC0 VectorOfPointFCopyData
       2300  8FB 00020450 VectorOfPointFCreate
       2301  8FC 00022BF0 VectorOfPointFCreateSize
       2302  8FD 00023940 VectorOfPointFGetItem
       2303  8FE 00022C70 VectorOfPointFGetItemPtr
       2304  8FF 00022CA0 VectorOfPointFGetSize
       2305  900 000259E0 VectorOfPointFGetStartAddress
       2306  901 00023980 VectorOfPointFPush
       2307  902 00022CC0 VectorOfPointFPushMulti
       2308  903 0001D950 VectorOfPointFRelease
       2309  904 00023940 VectorOfPointGetItem
       2310  905 00022C70 VectorOfPointGetItemPtr
       2311  906 00022CA0 VectorOfPointGetSize
       2312  907 000259E0 VectorOfPointGetStartAddress
       2313  908 00022CB0 VectorOfPointPush
       2314  909 00022CC0 VectorOfPointPushMulti
       2315  90A 0001D950 VectorOfPointRelease
       2316  90B 00022BB0 VectorOfRectClear
       2317  90C 00023E20 VectorOfRectCopyData
       2318  90D 00020450 VectorOfRectCreate
       2319  90E 00023E50 VectorOfRectCreateSize
       2320  90F 00023ED0 VectorOfRectGetItem
       2321  910 0001D440 VectorOfRectGetItemPtr
       2322  911 0001D470 VectorOfRectGetSize
       2323  912 000259E0 VectorOfRectGetStartAddress
       2324  913 00023F20 VectorOfRectPush
       2325  914 00023F30 VectorOfRectPushMulti
       2326  915 0001D950 VectorOfRectRelease
       2327  916 00022BB0 VectorOfTesseractResultClear
       2328  917 00024BA0 VectorOfTesseractResultCopyData
       2329  918 00020450 VectorOfTesseractResultCreate
       2330  919 00024580 VectorOfTesseractResultCreateSize
       2331  91A 00024600 VectorOfTesseractResultGetItem
       2332  91B 00022140 VectorOfTesseractResultGetItemPtr
       2333  91C 00024650 VectorOfTesseractResultGetSize
       2334  91D 000259E0 VectorOfTesseractResultGetStartAddress
       2335  91E 00024670 VectorOfTesseractResultPush
       2336  91F 00024680 VectorOfTesseractResultPushMulti
       2337  920 0001D950 VectorOfTesseractResultRelease
       2338  921 00022BB0 VectorOfTriangle2DFClear
       2339  922 00024BA0 VectorOfTriangle2DFCopyData
       2340  923 00020450 VectorOfTriangle2DFCreate
       2341  924 00024BE0 VectorOfTriangle2DFCreateSize
       2342  925 00024600 VectorOfTriangle2DFGetItem
       2343  926 00022140 VectorOfTriangle2DFGetItemPtr
       2344  927 00024650 VectorOfTriangle2DFGetSize
       2345  928 000259E0 VectorOfTriangle2DFGetStartAddress
       2346  929 00024C60 VectorOfTriangle2DFPush
       2347  92A 00024C70 VectorOfTriangle2DFPushMulti
       2348  92B 0001D950 VectorOfTriangle2DFRelease
       2349  92C 00025390 VectorOfUMatClear
       2350  92D 000253D0 VectorOfUMatCopyData
       2351  92E 00020450 VectorOfUMatCreate
       2352  92F 00025410 VectorOfUMatCreateSize
       2353  930 00025490 VectorOfUMatGetItemPtr
       2354  931 000254E0 VectorOfUMatGetSize
       2355  932 000259E0 VectorOfUMatGetStartAddress
       2356  933 00025500 VectorOfUMatPush
       2357  934 00025510 VectorOfUMatPushMulti
       2358  935 00025570 VectorOfUMatRelease
       2359  936 000260A0 VectorOfVectorOfDMatchClear
       2360  937 00026AC0 VectorOfVectorOfDMatchCopyData
       2361  938 00020450 VectorOfVectorOfDMatchCreate
       2362  939 000260D0 VectorOfVectorOfDMatchCreateSize
       2363  93A 000234B0 VectorOfVectorOfDMatchGetItemPtr
       2364  93B 000234F0 VectorOfVectorOfDMatchGetSize
       2365  93C 000259E0 VectorOfVectorOfDMatchGetStartAddress
       2366  93D 00025A00 VectorOfVectorOfDMatchPush
       2367  93E 00026540 VectorOfVectorOfDMatchPushMulti
       2368  93F 00026B10 VectorOfVectorOfDMatchRelease
       2369  940 000260A0 VectorOfVectorOfIntClear
       2370  941 00026AC0 VectorOfVectorOfIntCopyData
       2371  942 00020450 VectorOfVectorOfIntCreate
       2372  943 000260D0 VectorOfVectorOfIntCreateSize
       2373  944 000234B0 VectorOfVectorOfIntGetItemPtr
       2374  945 000234F0 VectorOfVectorOfIntGetSize
       2375  946 000259E0 VectorOfVectorOfIntGetStartAddress
       2376  947 00025DE0 VectorOfVectorOfIntPush
       2377  948 00026540 VectorOfVectorOfIntPushMulti
       2378  949 00026B10 VectorOfVectorOfIntRelease
       2379  94A 000260A0 VectorOfVectorOfPoint3D32FClear
       2380  94B 00026AC0 VectorOfVectorOfPoint3D32FCopyData
       2381  94C 00020450 VectorOfVectorOfPoint3D32FCreate
       2382  94D 000260D0 VectorOfVectorOfPoint3D32FCreateSize
       2383  94E 000234B0 VectorOfVectorOfPoint3D32FGetItemPtr
       2384  94F 000234F0 VectorOfVectorOfPoint3D32FGetSize
       2385  950 000259E0 VectorOfVectorOfPoint3D32FGetStartAddress
       2386  951 00026530 VectorOfVectorOfPoint3D32FPush
       2387  952 00026540 VectorOfVectorOfPoint3D32FPushMulti
       2388  953 00026B10 VectorOfVectorOfPoint3D32FRelease
       2389  954 000260A0 VectorOfVectorOfPointClear
       2390  955 00026AC0 VectorOfVectorOfPointCopyData
       2391  956 00020450 VectorOfVectorOfPointCreate
       2392  957 000260D0 VectorOfVectorOfPointCreateSize
       2393  958 000260A0 VectorOfVectorOfPointFClear
       2394  959 00026AC0 VectorOfVectorOfPointFCopyData
       2395  95A 00020450 VectorOfVectorOfPointFCreate
       2396  95B 000260D0 VectorOfVectorOfPointFCreateSize
       2397  95C 000234B0 VectorOfVectorOfPointFGetItemPtr
       2398  95D 000234F0 VectorOfVectorOfPointFGetSize
       2399  95E 000259E0 VectorOfVectorOfPointFGetStartAddress
       2400  95F 00026B00 VectorOfVectorOfPointFPush
       2401  960 00026540 VectorOfVectorOfPointFPushMulti
       2402  961 00026B10 VectorOfVectorOfPointFRelease
       2403  962 000234B0 VectorOfVectorOfPointGetItemPtr
       2404  963 000234F0 VectorOfVectorOfPointGetSize
       2405  964 000259E0 VectorOfVectorOfPointGetStartAddress
       2406  965 00026B00 VectorOfVectorOfPointPush
       2407  966 00026540 VectorOfVectorOfPointPushMulti
       2408  967 00026B10 VectorOfVectorOfPointRelease
       2409  968 00040000 VideostabCaptureFrameSourceCreate
       2410  969 0002FEE0 VideostabCaptureFrameSourceRelease
       2411  96A 00040080 VideostabFrameSourceGetNextFrame
       2412  96B 0052D6E0 XTIFFClientOpen
       2413  96C 0052D710 XTIFFClose
       2414  96D 0052D720 XTIFFFdOpen
       2415  96E 0052D750 XTIFFInitialize
       2416  96F 0052D780 XTIFFOpen
       2417  970 0052D0C0 _GTIFFree
       2418  971 0052D210 _GTIFSetDefaultTIFF
       2419  972 0052D270 _GTIFcalloc
       2420  973 0052D2A0 _GTIFmemcpy
       2421  974 0052D2B0 _GTIFrealloc
       2422  975 000177C0 axisAngleToQuaternions
       2423  976 00017100 computeEdge3DPlane3DIntersection
       2424  977 000171F0 computePlane3DIntersection
       2425  978 00028CE0 cudaDeviceInfoComputeCapability
       2426  979 00028D00 cudaDeviceInfoCreate
       2427  97A 00028D80 cudaDeviceInfoDeviceName
       2428  97B 00028E60 cudaDeviceInfoFreeMemInfo
       2429  97C 00028E90 cudaDeviceInfoIsCompatible
       2430  97D 00028EA0 cudaDeviceInfoMultiProcessorCount
       2431  97E 000274A0 cudaDeviceInfoRelease
       2432  97F 00028EB0 cudaDeviceInfoSupports
       2433  980 00028EE0 cudaDeviceInfoTotalMemInfo
       2434  981 00027960 cudaGetCudaEnabledDeviceCount
       2435  982 00028F10 cudaGetDevice
       2436  983 00035930 cudaNonLocalMeans
       2437  984 00028F20 cudaSetDevice
       2438  985 00040BA0 cvAffineTransformerCreate
       2439  986 00016560 cvBlendBgrOverBgrWithAlpha
       2440  987 00016800 cvBlendBgraOverBgr
       2441  988 00040C90 cvChiHistogramCostExtractorCreate
       2442  989 00016A50 cvCovertBgr2Bgr_Gray
       2443  98A 00040D30 cvEMDHistogramCostExtractorCreate
       2444  98B 00040DE0 cvEMDL1HistogramCostExtractorCreate
       2445  98C 0002AE20 cvGetImageSubRect
       2446  98D 00040E80 cvHausdorffDistanceExtractorCreate
       2447  98E 0002FEE0 cvHausdorffDistanceExtractorRelease
       2448  98F 0002FEE0 cvHistogramCostExtractorRelease
       2449  990 0001C190 cvInputArrayFromVectorOfByte
       2450  991 00020690 cvInputArrayFromVectorOfColorPoint
       2451  992 00020690 cvInputArrayFromVectorOfCvString
       2452  993 0001D4C0 cvInputArrayFromVectorOfDMatch
       2453  994 0001D9A0 cvInputArrayFromVectorOfDouble
       2454  995 00020690 cvInputArrayFromVectorOfERStat
       2455  996 0001E970 cvInputArrayFromVectorOfFloat
       2456  997 00020690 cvInputArrayFromVectorOfGpuMat
       2457  998 000209D0 cvInputArrayFromVectorOfInt
       2458  999 000212C0 cvInputArrayFromVectorOfKeyPoint
       2459  99A 00021B50 cvInputArrayFromVectorOfMat
       2460  99B 00020690 cvInputArrayFromVectorOfObjectDetection
       2461  99C 00020690 cvInputArrayFromVectorOfOclPlatformInfo
       2462  99D 00022D10 cvInputArrayFromVectorOfPoint
       2463  99E 00023570 cvInputArrayFromVectorOfPoint3D32F
       2464  99F 00023990 cvInputArrayFromVectorOfPointF
       2465  9A0 0001D4C0 cvInputArrayFromVectorOfRect
       2466  9A1 00020690 cvInputArrayFromVectorOfTesseractResult
       2467  9A2 00024CD0 cvInputArrayFromVectorOfTriangle2DF
       2468  9A3 000255E0 cvInputArrayFromVectorOfUMat
       2469  9A4 00025A10 cvInputArrayFromVectorOfVectorOfDMatch
       2470  9A5 00025DF0 cvInputArrayFromVectorOfVectorOfInt
       2471  9A6 00026150 cvInputArrayFromVectorOfVectorOfPoint
       2472  9A7 00026590 cvInputArrayFromVectorOfVectorOfPoint3D32F
       2473  9A8 00026B70 cvInputArrayFromVectorOfVectorOfPointF
       2474  9A9 0001C220 cvInputOutputArrayFromVectorOfByte
       2475  9AA 00020720 cvInputOutputArrayFromVectorOfColorPoint
       2476  9AB 00020720 cvInputOutputArrayFromVectorOfCvString
       2477  9AC 00023F70 cvInputOutputArrayFromVectorOfDMatch
       2478  9AD 0001DA30 cvInputOutputArrayFromVectorOfDouble
       2479  9AE 00020720 cvInputOutputArrayFromVectorOfERStat
       2480  9AF 0001EA00 cvInputOutputArrayFromVectorOfFloat
       2481  9B0 00020720 cvInputOutputArrayFromVectorOfGpuMat
       2482  9B1 00020A60 cvInputOutputArrayFromVectorOfInt
       2483  9B2 00021350 cvInputOutputArrayFromVectorOfKeyPoint
       2484  9B3 00021BE0 cvInputOutputArrayFromVectorOfMat
       2485  9B4 00020720 cvInputOutputArrayFromVectorOfObjectDetection
       2486  9B5 00020720 cvInputOutputArrayFromVectorOfOclPlatformInfo
       2487  9B6 00022DA0 cvInputOutputArrayFromVectorOfPoint
       2488  9B7 00023600 cvInputOutputArrayFromVectorOfPoint3D32F
       2489  9B8 00023A20 cvInputOutputArrayFromVectorOfPointF
       2490  9B9 00023F70 cvInputOutputArrayFromVectorOfRect
       2491  9BA 00020720 cvInputOutputArrayFromVectorOfTesseractResult
       2492  9BB 00024D60 cvInputOutputArrayFromVectorOfTriangle2DF
       2493  9BC 00025670 cvInputOutputArrayFromVectorOfUMat
       2494  9BD 00025AA0 cvInputOutputArrayFromVectorOfVectorOfDMatch
       2495  9BE 00025E80 cvInputOutputArrayFromVectorOfVectorOfInt
       2496  9BF 000261E0 cvInputOutputArrayFromVectorOfVectorOfPoint
       2497  9C0 00026620 cvInputOutputArrayFromVectorOfVectorOfPoint3D32F
       2498  9C1 00026C00 cvInputOutputArrayFromVectorOfVectorOfPointF
       2499  9C2 00029930 cvMatGetUMat
       2500  9C3 00029A30 cvMatSetTo
       2501  9C4 00040F20 cvNormHistogramCostExtractorCreate
       2502  9C5 0001C2B0 cvOutputArrayFromVectorOfByte
       2503  9C6 000246E0 cvOutputArrayFromVectorOfColorPoint
       2504  9C7 000246E0 cvOutputArrayFromVectorOfCvString
       2505  9C8 0001D550 cvOutputArrayFromVectorOfDMatch
       2506  9C9 0001DAC0 cvOutputArrayFromVectorOfDouble
       2507  9CA 000246E0 cvOutputArrayFromVectorOfERStat
       2508  9CB 0001EA90 cvOutputArrayFromVectorOfFloat
       2509  9CC 000246E0 cvOutputArrayFromVectorOfGpuMat
       2510  9CD 00020AF0 cvOutputArrayFromVectorOfInt
       2511  9CE 000213E0 cvOutputArrayFromVectorOfKeyPoint
       2512  9CF 00021C70 cvOutputArrayFromVectorOfMat
       2513  9D0 000246E0 cvOutputArrayFromVectorOfObjectDetection
       2514  9D1 000246E0 cvOutputArrayFromVectorOfOclPlatformInfo
       2515  9D2 00022E30 cvOutputArrayFromVectorOfPoint
       2516  9D3 00023690 cvOutputArrayFromVectorOfPoint3D32F
       2517  9D4 00023AB0 cvOutputArrayFromVectorOfPointF
       2518  9D5 0001D550 cvOutputArrayFromVectorOfRect
       2519  9D6 000246E0 cvOutputArrayFromVectorOfTesseractResult
       2520  9D7 00024DF0 cvOutputArrayFromVectorOfTriangle2DF
       2521  9D8 00025700 cvOutputArrayFromVectorOfUMat
       2522  9D9 00025B30 cvOutputArrayFromVectorOfVectorOfDMatch
       2523  9DA 00025F10 cvOutputArrayFromVectorOfVectorOfInt
       2524  9DB 00026270 cvOutputArrayFromVectorOfVectorOfPoint
       2525  9DC 000266B0 cvOutputArrayFromVectorOfVectorOfPoint3D32F
       2526  9DD 00026C90 cvOutputArrayFromVectorOfVectorOfPointF
       2527  9DE 00016C40 cvSelectiveColor
       2528  9DF 00040FD0 cvShapeContextDistanceExtractorCreate
       2529  9E0 0002FEE0 cvShapeContextDistanceExtractorRelease
       2530  9E1 00041130 cvShapeDistanceExtractorComputeDistance
       2531  9E2 0002FEE0 cvShapeTransformerRelease
       2532  9E3 000367F0 cvSuperResolutionCreate
       2533  9E4 0002FEE0 cvSuperResolutionRelease
       2534  9E5 00036A10 cvSuperresCreateFrameSourceCamera
       2535  9E6 00036AB0 cvSuperresCreateFrameSourceVideo
       2536  9E7 00036C10 cvSuperresFrameSourceNextFrame
       2537  9E8 0002FEE0 cvSuperresFrameSourceRelease
       2538  9E9 00041190 cvThinPlateSplineShapeTransformerCreate
       2539  9EA 00016E90 cvVignetteMaskCreate
       2540  9EB 000136C0 cvbCvBlobGetContour
       2541  9EC 00514B60 cvbCvBlobGetLabel
       2542  9ED 00013740 cvbCvBlobGetMoment
       2543  9EE 000137F0 cvbCvBlobGetRect
       2544  9EF 00013820 cvbCvBlobMeanColor
       2545  9F0 00013850 cvbCvBlobsAdd
       2546  9F1 00013930 cvbCvBlobsClear
       2547  9F2 00013940 cvbCvBlobsCreate
       2548  9F3 00013CB0 cvbCvBlobsFind
       2549  9F4 000139D0 cvbCvBlobsGetBlobs
       2550  9F5 00013A50 cvbCvBlobsGetSize
       2551  9F6 00013A60 cvbCvBlobsRelease
       2552  9F7 00013AE0 cvbCvBlobsRemove
       2553  9F8 00013B60 cvbCvFilterByArea
       2554  9F9 00013B70 cvbCvFilterLabels
       2555  9FA 00013B80 cvbCvLabel
       2556  9FB 00013B90 cvbCvRenderBlobs
       2557  9FC 00013BC0 cvbCvTrackEquals
       2558  9FD 00013C00 cvbCvTracksAdd
       2559  9FE 00013CA0 cvbCvTracksClear
       2560  9FF 00013940 cvbCvTracksCreate
       2561  A00 00013CB0 cvbCvTracksFind
       2562  A01 00013A50 cvbCvTracksGetSize
       2563  A02 00013D00 cvbCvTracksGetTracks
       2564  A03 00013DA0 cvbCvTracksRelease
       2565  A04 00013E20 cvbCvTracksRemove
       2566  A05 00013E90 cvbCvTracksSetTrack
       2567  A06 00013F20 cvbCvUpdateTracks
       2568  A07 000320D0 cveAKAZEDetectorCreate
       2569  A08 000324D0 cveAKAZEDetectorRelease
       2570  A09 00030370 cveANN_MLPCreate
       2571  A0A 0002F870 cveANN_MLPGetBackpropMomentumScale
       2572  A0B 0002F880 cveANN_MLPGetBackpropWeightScale
       2573  A0C 0002F890 cveANN_MLPGetRpropDW0
       2574  A0D 0002F8A0 cveANN_MLPGetRpropDWMax
       2575  A0E 0002F8C0 cveANN_MLPGetRpropDWMin
       2576  A0F 0002D6F0 cveANN_MLPGetRpropDWMinus
       2577  A10 0002F8D0 cveANN_MLPGetRpropDWPlus
       2578  A11 0002F8E0 cveANN_MLPGetTermCriteria
       2579  A12 0002FEE0 cveANN_MLPRelease
       2580  A13 000B8930 cveANN_MLPSetActivationFunction
       2581  A14 0002F920 cveANN_MLPSetBackpropMomentumScale
       2582  A15 0002D740 cveANN_MLPSetBackpropWeightScale
       2583  A16 0002FA40 cveANN_MLPSetLayerSizes
       2584  A17 0002F940 cveANN_MLPSetRpropDW0
       2585  A18 0002F960 cveANN_MLPSetRpropDWMax
       2586  A19 0002F980 cveANN_MLPSetRpropDWMin
       2587  A1A 0002D7E0 cveANN_MLPSetRpropDWMinus
       2588  A1B 0002F9A0 cveANN_MLPSetRpropDWPlus
       2589  A1C 0002F9C0 cveANN_MLPSetTermCriteria
       2590  A1D 00030410 cveANN_MLPSetTrainMethod
       2591  A1E 00026FD0 cveAbsDiff
       2592  A1F 0002AE70 cveAccumulate
       2593  A20 0002AE90 cveAccumulateProduct
       2594  A21 0002AEB0 cveAccumulateSquare
       2595  A22 0002AED0 cveAccumulateWeighted
       2596  A23 0002AF00 cveAdaptiveThreshold
       2597  A24 00026FE0 cveAdd
       2598  A25 00027000 cveAddWeighted
       2599  A26 00027040 cveAlgorithmRead
       2600  A27 00027050 cveAlgorithmWrite
       2601  A28 0002AF40 cveApplyColorMap
       2602  A29 0002AF50 cveApproxPolyDP
       2603  A2A 0002AF80 cveArcLength
       2604  A2B 00029A50 cveArrToMat
       2605  A2C 0002AF90 cveArrowedLine
       2606  A2D 0002E930 cveAutotunedIndexParamsCreate
       2607  A2E 0002ED20 cveAutotunedIndexParamsRelease
       2608  A2F 00032190 cveBFMatcherCreate
       2609  A30 0002FEE0 cveBFMatcherRelease
       2610  A31 00043D90 cveBalanceWhite
       2611  A32 0002B010 cveBilateralFilter
       2612  A33 00027060 cveBitwiseAnd
       2613  A34 00027080 cveBitwiseNot
       2614  A35 000270A0 cveBitwiseOr
       2615  A36 000270C0 cveBitwiseXor
       2616  A37 0002B050 cveBlur
       2617  A38 00030440 cveBoostCreate
       2618  A39 0002FEE0 cveBoostRelease
       2619  A3A 0002B090 cveBoundingRectangle
       2620  A3B 0002B0D0 cveBoxFilter
       2621  A3C 0002B110 cveBoxPoints
       2622  A3D 000438E0 cveBriefDescriptorExtractorCreate
       2623  A3E 000324D0 cveBriefDescriptorExtractorRelease
       2624  A3F 00032200 cveBriskCreate
       2625  A40 000324D0 cveBriskRelease
       2626  A41 0002B140 cveCLAHE
       2627  A42 0002B1F0 cveCalcBackProject
       2628  A43 000270E0 cveCalcCovarMatrix
       2629  A44 00044110 cveCalcGlobalOrientation
       2630  A45 0002B220 cveCalcHist
       2631  A46 00044140 cveCalcMotionGradient
       2632  A47 0002DA80 cveCalcOpticalFlowFarneback
       2633  A48 0002DAC0 cveCalcOpticalFlowPyrLK
       2634  A49 00033F60 cveCalibrateCRFProcess
       2635  A4A 00034040 cveCalibrateCamera
       2636  A4B 000340A0 cveCalibrationMatrixValues
       2637  A4C 0002DB30 cveCamShift
       2638  A4D 0002B240 cveCanny
       2639  A4E 000270F0 cveCartToPolar
       2640  A4F 00027110 cveCheckArr
       2641  A50 00027140 cveCheckRange
       2642  A51 0002B280 cveCircle
       2643  A52 00027190 cveClearND
       2644  A53 000271A0 cveClipLine
       2645  A54 000359B0 cveColorChange
       2646  A55 00027220 cveCompare
       2647  A56 0002B2E0 cveCompareHist
       2648  A57 0002E9D0 cveCompositeIndexParamsCreate
       2649  A58 0002ED20 cveCompositeIndexParamsRelease
       2650  A59 00034140 cveComputeCorrespondEpilines
       2651  A5A 0002B2F0 cveContourArea
       2652  A5B 0002B300 cveConvertMaps
       2653  A5C 00034150 cveConvertPointsFromHomogeneous
       2654  A5D 00034160 cveConvertPointsToHomogeneous
       2655  A5E 00027230 cveConvertScale
       2656  A5F 00027260 cveConvertScaleAbs
       2657  A60 0002B340 cveConvexHull
       2658  A61 0002B350 cveConvexityDefects
       2659  A62 00027290 cveCopy
       2660  A63 0002B360 cveCopyMakeBorder
       2661  A64 0002B3C0 cveCornerHarris
       2662  A65 0002B3F0 cveCornerSubPix
       2663  A66 00034170 cveCorrectMatches
       2664  A67 000272A0 cveCountNonZero
       2665  A68 00035A10 cveCreateCalibrateDebevec
       2666  A69 00035AC0 cveCreateCalibrateRobertson
       2667  A6A 0002B460 cveCreateHanningWindow
       2668  A6B 000272B0 cveCreateImage
       2669  A6C 000272D0 cveCreateImageHeader
       2670  A6D 000272F0 cveCreateMat
       2671  A6E 00035B70 cveCreateMergeDebevec
       2672  A6F 00035C10 cveCreateMergeMertens
       2673  A70 00027300 cveCreateSparseMat
       2674  A71 0002B490 cveCvtColor
       2675  A72 00043980 cveDAISYCreate
       2676  A73 000324D0 cveDAISYRelease
       2677  A74 000304E0 cveDTreesCreate
       2678  A75 0002FB70 cveDTreesGetCVFolds
       2679  A76 000307D0 cveDTreesGetMaxCategories
       2680  A77 0002FA00 cveDTreesGetMaxDepth
       2681  A78 000307E0 cveDTreesGetMinSampleCount
       2682  A79 000307F0 cveDTreesGetRegressionAccuracy
       2683  A7A 00030920 cveDTreesGetTruncatePrunedTree
       2684  A7B 0002FA10 cveDTreesGetUse1SERule
       2685  A7C 0002FA20 cveDTreesGetUseSurrogates
       2686  A7D 0002FEE0 cveDTreesRelease
       2687  A7E 0002FB00 cveDTreesSetCVFolds
       2688  A7F 0002FA30 cveDTreesSetMaxCategories
       2689  A80 0002FA40 cveDTreesSetMaxDepth
       2690  A81 0002FA50 cveDTreesSetMinSampleCount
       2691  A82 00030880 cveDTreesSetRegressionAccuracy
       2692  A83 0002FA60 cveDTreesSetTruncatePrunedTree
       2693  A84 0002FA70 cveDTreesSetUse1SERule
       2694  A85 000308E0 cveDTreesSetUseSurrogates
       2695  A86 00027310 cveDct
       2696  A87 00043DE0 cveDctDenoising
       2697  A88 00035CD0 cveDenoiseTVL1
       2698  A89 00033F60 cveDenseOpticalFlowCalc
       2699  A8A 0002DBE0 cveDenseOpticalFlowCreateDualTVL1
       2700  A8B 00030FB0 cveDestroyAllWindows
       2701  A8C 00030FC0 cveDestroyWindow
       2702  A8D 00035D00 cveDetailEnhance
       2703  A8E 00027320 cveDeterminant
       2704  A8F 00027330 cveDft
       2705  A90 0002B4A0 cveDilate
       2706  A91 0002B520 cveDistanceTransform
       2707  A92 00027340 cveDivide
       2708  A93 00034180 cveDrawChessboardCorners
       2709  A94 0002B5C0 cveDrawContours
       2710  A95 0002F880 cveDualTVL1OpticalFlowGetEpsilon
       2711  A96 0002D6A0 cveDualTVL1OpticalFlowGetGamma
       2712  A97 0002D6B0 cveDualTVL1OpticalFlowGetInnerIterations
       2713  A98 0002D6C0 cveDualTVL1OpticalFlowGetLambda
       2714  A99 0002D6D0 cveDualTVL1OpticalFlowGetMedianFiltering
       2715  A9A 0002D6E0 cveDualTVL1OpticalFlowGetOuterIterations
       2716  A9B 0002D6F0 cveDualTVL1OpticalFlowGetScaleStep
       2717  A9C 0002D700 cveDualTVL1OpticalFlowGetScalesNumber
       2718  A9D 0002D710 cveDualTVL1OpticalFlowGetTau
       2719  A9E 0002D720 cveDualTVL1OpticalFlowGetTheta
       2720  A9F 0002F8D0 cveDualTVL1OpticalFlowGetUseInitialFlow
       2721  AA0 0002D730 cveDualTVL1OpticalFlowGetWarpingsNumber
       2722  AA1 0002FEE0 cveDualTVL1OpticalFlowRelease
       2723  AA2 0002D740 cveDualTVL1OpticalFlowSetEpsilon
       2724  AA3 0002D760 cveDualTVL1OpticalFlowSetGamma
       2725  AA4 0002D780 cveDualTVL1OpticalFlowSetInnerIterations
       2726  AA5 0002D790 cveDualTVL1OpticalFlowSetLambda
       2727  AA6 0002D7B0 cveDualTVL1OpticalFlowSetMedianFiltering
       2728  AA7 0002D7D0 cveDualTVL1OpticalFlowSetOuterIterations
       2729  AA8 0002D7E0 cveDualTVL1OpticalFlowSetScaleStep
       2730  AA9 0002D800 cveDualTVL1OpticalFlowSetScalesNumber
       2731  AAA 0002D810 cveDualTVL1OpticalFlowSetTau
       2732  AAB 0002D830 cveDualTVL1OpticalFlowSetTheta
       2733  AAC 0002D850 cveDualTVL1OpticalFlowSetUseInitialFlow
       2734  AAD 0002D860 cveDualTVL1OpticalFlowSetWarpingsNumber
       2735  AAE 0002B6B0 cveEMD
       2736  AAF 000307D0 cveEMGetClustersNumber
       2737  AB0 0002FA00 cveEMGetCovarianceMatrixType
       2738  AB1 0002FA80 cveEMGetTermCriteria
       2739  AB2 0002FA30 cveEMSetClustersNumber
       2740  AB3 0002FA40 cveEMSetCovarianceMatrixType
       2741  AB4 0002FAC0 cveEMSetTermCriteria
       2742  AB5 00035D30 cveEdgePreservingFilter
       2743  AB6 00027370 cveEigen
       2744  AB7 0002B6F0 cveEllipse
       2745  AB8 0002B780 cveEqualizeHist
       2746  AB9 0002B790 cveErode
       2747  ABA 00027390 cveErrorStr
       2748  ABB 000341B0 cveEstimateAffine3D
       2749  ABC 0002DC80 cveEstimateRigidTransform
       2750  ABD 000273A0 cveExp
       2751  ABE 000273B0 cveExtractChannel
       2752  ABF 000324D0 cveFASTFeatureDetectorRelease
       2753  AC0 000322B0 cveFASTGetFeatureDetector
       2754  AC1 00035D60 cveFastNlMeansDenoising
       2755  AC2 00035D90 cveFastNlMeansDenoisingColored
       2756  AC3 000273C0 cveFileNodeGetType
       2757  AC4 000273D0 cveFileNodeIsEmpty
       2758  AC5 000273E0 cveFileNodeReadDouble
       2759  AC6 00027420 cveFileNodeReadFloat
       2760  AC7 00027450 cveFileNodeReadInt
       2761  AC8 00027480 cveFileNodeReadMat
       2762  AC9 00027490 cveFileNodeReadString
       2763  ACA 000274A0 cveFileNodeRelease
       2764  ACB 000274C0 cveFileStorageCreate
       2765  ACC 00027540 cveFileStorageGetFirstTopLevelNode
       2766  ACD 000275D0 cveFileStorageGetNode
       2767  ACE 00027660 cveFileStorageIsOpened
       2768  ACF 0002FEE0 cveFileStorageRelease
       2769  AD0 00027670 cveFileStorageReleaseAndGetString
       2770  AD1 000276E0 cveFileStorageRoot
       2771  AD2 00027770 cveFileStorageWriteDouble
       2772  AD3 00027790 cveFileStorageWriteFloat
       2773  AD4 000277B0 cveFileStorageWriteInt
       2774  AD5 000277C0 cveFileStorageWriteMat
       2775  AD6 000277D0 cveFileStorageWriteString
       2776  AD7 0002B810 cveFillConvexPoly
       2777  AD8 0002B860 cveFillPoly
       2778  AD9 0002B8C0 cveFilter2D
       2779  ADA 000341F0 cveFindChessboardCorners
       2780  ADB 00034220 cveFindCirclesGrid
       2781  ADC 0002B9E0 cveFindContours
       2782  ADD 000342E0 cveFindFundamentalMat
       2783  ADE 000343C0 cveFindHomography
       2784  ADF 000277E0 cveFindNonZero
       2785  AE0 0002BA20 cveFitEllipse
       2786  AE1 0002BA60 cveFitLine
       2787  AE2 0002EA50 cveFlannIndexCreate
       2788  AE3 000277F0 cveFlip
       2789  AE4 0002BAA0 cveFloodFill
       2790  AE5 00043AB0 cveFreakCreate
       2791  AE6 000324D0 cveFreakRelease
       2792  AE7 00032350 cveGFTTDetectorCreate
       2793  AE8 000324D0 cveGFTTDetectorRelease
       2794  AE9 0002BB50 cveGaussianBlur
       2795  AEA 00027800 cveGemm
       2796  AEB 00027840 cveGet1D
       2797  AEC 00027890 cveGet2D
       2798  AED 000278E0 cveGet3D
       2799  AEE 0002BB90 cveGetAffineTransform
       2800  AEF 0002BC20 cveGetCentralMoment
       2801  AF0 00027940 cveGetCols
       2802  AF1 00016250 cveGetCvStructSizes
       2803  AF2 0002BC30 cveGetDefaultNewCameraMatrix
       2804  AF3 00027950 cveGetDiag
       2805  AF4 00027960 cveGetErrMode
       2806  AF5 00027960 cveGetErrStatus
       2807  AF6 00027970 cveGetImage
       2808  AF7 00027980 cveGetImageCOI
       2809  AF8 00027990 cveGetImageROI
       2810  AF9 000279C0 cveGetMat
       2811  AFA 0002BCE0 cveGetNormalizedCentralMoment
       2812  AFB 000279D0 cveGetNumThreads
       2813  AFC 000279E0 cveGetOptimalDFTSize
       2814  AFD 0002BCF0 cveGetPerspectiveTransform
       2815  AFE 000279F0 cveGetRawData
       2816  AFF 00027A00 cveGetReal1D
       2817  B00 00027A10 cveGetReal2D
       2818  B01 00027A20 cveGetReal3D
       2819  B02 0002BD80 cveGetRectSubPix
       2820  B03 0002BDC0 cveGetRotationMatrix2D
       2821  B04 00027A30 cveGetRows
       2822  B05 00027A40 cveGetSize
       2823  B06 0002BED0 cveGetSpatialMoment
       2824  B07 0002BEE0 cveGetStructuringElement
       2825  B08 00027A70 cveGetSubRect
       2826  B09 00027AA0 cveGetThreadNum
       2827  B0A 00029210 cveGpuMatDepth
       2828  B0B 0002A130 cveGpuMatIsContinuous
       2829  B0C 00029630 cveGpuMatIsEmpty
       2830  B0D 0002A190 cveGpuMatNumberOfChannels
       2831  B0E 0002BFA0 cveGrabCut
       2832  B0F 00027AB0 cveHConcat
       2833  B10 0002A1D0 cveHaveOpenCL
       2834  B11 0002EAD0 cveHierarchicalClusteringIndexParamsCreate
       2835  B12 0002ED20 cveHierarchicalClusteringIndexParamsRelease
       2836  B13 0002BFF0 cveHoughCircles
       2837  B14 0002C040 cveHoughLines
       2838  B15 0002C0A0 cveHoughLinesP
       2839  B16 0002C0F0 cveHuMoments
       2840  B17 00035DD0 cveIlluminationChange
       2841  B18 00030A80 cveImdecode
       2842  B19 00030AE0 cveImencode
       2843  B1A 00030BF0 cveImread
       2844  B1B 00030FD0 cveImshow
       2845  B1C 00030C80 cveImwrite
       2846  B1D 00027AC0 cveInRange
       2847  B1E 00027AD0 cveInitImageHeader
       2848  B1F 00027B00 cveInitMatHeader
       2849  B20 00027B10 cveInitMatNDHeader
       2850  B21 0002C150 cveInitUndistortRectifyMap
       2851  B22 00035E10 cveInpaint
       2852  B23 00027B20 cveInputArrayFromDouble
       2853  B24 00027BC0 cveInputArrayFromGpuMat
       2854  B25 00027C50 cveInputArrayFromMat
       2855  B26 00027CE0 cveInputArrayFromScalar
       2856  B27 00027D80 cveInputArrayFromUMat
       2857  B28 00027E10 cveInputArrayGetChannels
       2858  B29 00027E20 cveInputArrayGetDepth
       2859  B2A 00027E30 cveInputArrayGetMat
       2860  B2B 00027EC0 cveInputArrayGetSize
       2861  B2C 00027EF0 cveInputArrayGetUMat
       2862  B2D 00027F70 cveInputArrayIsEmpty
       2863  B2E 00029640 cveInputArrayIsMat
       2864  B2F 00029660 cveInputArrayIsMatVector
       2865  B30 00029680 cveInputArrayIsMatx
       2866  B31 000296A0 cveInputArrayIsUMat
       2867  B32 000296C0 cveInputArrayIsUMatVector
       2868  B33 00028130 cveInputArrayRelease
       2869  B34 00027F80 cveInputOutputArrayFromGpuMat
       2870  B35 00028010 cveInputOutputArrayFromMat
       2871  B36 000280A0 cveInputOutputArrayFromUMat
       2872  B37 00028130 cveInputOutputArrayRelease
       2873  B38 00028150 cveInsertChannel
       2874  B39 0002C210 cveIntegral
       2875  B3A 00028160 cveInvert
       2876  B3B 0002C260 cveInvertAffineTransform
       2877  B3C 0002C270 cveIsContourConvex
       2878  B3D 00032420 cveKAZEDetectorCreate
       2879  B3E 000324D0 cveKAZEDetectorRelease
       2880  B3F 0002EB50 cveKDTreeIndexParamsCreate
       2881  B40 0002ED20 cveKDTreeIndexParamsRelease
       2882  B41 0002EBC0 cveKMeansIndexParamsCreate
       2883  B42 0002ED20 cveKMeansIndexParamsRelease
       2884  B43 0002FB70 cveKNearestGetAlgorithmType
       2885  B44 000307D0 cveKNearestGetDefaultK
       2886  B45 000307E0 cveKNearestGetEmax
       2887  B46 0002FAF0 cveKNearestGetIsClassifier
       2888  B47 0002FB00 cveKNearestSetAlgorithmType
       2889  B48 0002FA30 cveKNearestSetDefaultK
       2890  B49 0002FA50 cveKNearestSetEmax
       2891  B4A 0002FA40 cveKNearestSetIsClassifier
       2892  B4B 0002DD20 cveKalmanFilterCorrect
       2893  B4C 0002DD30 cveKalmanFilterCreate
       2894  B4D 0002D870 cveKalmanFilterGetControlMatrix
       2895  B4E 0002D880 cveKalmanFilterGetErrorCovPost
       2896  B4F 0002D890 cveKalmanFilterGetErrorCovPre
       2897  B50 0002D8A0 cveKalmanFilterGetGain
       2898  B51 0002D8B0 cveKalmanFilterGetMeasurementMatrix
       2899  B52 0002D8C0 cveKalmanFilterGetMeasurementNoiseCov
       2900  B53 0002D8D0 cveKalmanFilterGetProcessNoiseCov
       2901  B54 0002D8E0 cveKalmanFilterGetStatePost
       2902  B55 006A2010 cveKalmanFilterGetStatePre
       2903  B56 0002D8F0 cveKalmanFilterGetTransitionMatrix
       2904  B57 0002DDB0 cveKalmanFilterPredict
       2905  B58 0002DEB0 cveKalmanFilterRelease
       2906  B59 00028180 cveKmeans
       2907  B5A 00043BA0 cveLATCHCreate
       2908  B5B 000324D0 cveLATCHRelease
       2909  B5C 000616B0 cveLSVMDetectorCreate
       2910  B5D 00061810 cveLSVMDetectorDetect
       2911  B5E 00061830 cveLSVMDetectorRelease
       2912  B5F 00061850 cveLSVMGetClassCount
       2913  B60 00061860 cveLSVMGetClassNames
       2914  B61 00043C40 cveLUCIDCreate
       2915  B62 000324D0 cveLUCIDRelease
       2916  B63 000281E0 cveLUT
       2917  B64 0002C280 cveLaplacian
       2918  B65 0002C2C0 cveLine
       2919  B66 0002EC40 cveLinearIndexParamsCreate
       2920  B67 0002ED20 cveLinearIndexParamsRelease
       2921  B68 0002C330 cveLinearPolar
       2922  B69 000281F0 cveLog
       2923  B6A 0002C370 cveLogPolar
       2924  B6B 00030580 cveLogisticRegressionCreate
       2925  B6C 0002FA00 cveLogisticRegressionGetIterations
       2926  B6D 0002FB10 cveLogisticRegressionGetLearningRate
       2927  B6E 0002FB20 cveLogisticRegressionGetMiniBatchSize
       2928  B6F 0002FB30 cveLogisticRegressionGetTermCriteria
       2929  B70 0002FB70 cveLogisticRegressionGetTrainMethod
       2930  B71 0002FEE0 cveLogisticRegressionRelease
       2931  B72 0002FA40 cveLogisticRegressionSetIterations
       2932  B73 0002FB80 cveLogisticRegressionSetLearningRate
       2933  B74 000308E0 cveLogisticRegressionSetMiniBatchSize
       2934  B75 0002FBA0 cveLogisticRegressionSetTermCriteria
       2935  B76 0002FB00 cveLogisticRegressionSetTrainMethod
       2936  B77 0002ECB0 cveLshIndexParamsCreate
       2937  B78 0002ED20 cveLshIndexParamsRelease
       2938  B79 00028200 cveMahalanobis
       2939  B7A 00029B20 cveMatAllocatorRelease
       2940  B7B 00029B40 cveMatConvertTo
       2941  B7C 00029B70 cveMatCopyTo
       2942  B7D 00029BA0 cveMatCreate
       2943  B7E 00029C10 cveMatCreateData
       2944  B7F 00029C70 cveMatCreateFromRect
       2945  B80 00029D10 cveMatCreateWithData
       2946  B81 00029D90 cveMatCross
       2947  B82 00029210 cveMatDepth
       2948  B83 00029E20 cveMatDot
       2949  B84 00029E30 cveMatGetDataPointer
       2950  B85 00029E40 cveMatGetElementSize
       2951  B86 0002AC10 cveMatGetSize
       2952  B87 00029E60 cveMatGetStep
       2953  B88 0002A130 cveMatIsContinuous
       2954  B89 0002A140 cveMatIsEmpty
       2955  B8A 0002AE10 cveMatIsSubmatrix
       2956  B8B 0002A190 cveMatNumberOfChannels
       2957  B8C 0002A1B0 cveMatPopBack
       2958  B8D 0002A1C0 cveMatPushBack
       2959  B8E 00029E70 cveMatRelease
       2960  B8F 00029EB0 cveMatReshape
       2961  B90 00029F80 cveMatToIplImage
       2962  B91 0002A000 cveMatUseCustomAllocator
       2963  B92 0002C3B0 cveMatchShapes
       2964  B93 0002C3E0 cveMatchTemplate
       2965  B94 00028220 cveMax
       2966  B95 0002C400 cveMaxRect
       2967  B96 00028230 cveMean
       2968  B97 0002DEE0 cveMeanShift
       2969  B98 00028290 cveMeanStdDev
       2970  B99 0002C430 cveMedianBlur
       2971  B9A 000162C0 cveMemcpy
       2972  B9B 000282B0 cveMerge
       2973  B9C 0002FEE0 cveMergeDebevecRelease
       2974  B9D 00035E40 cveMergeExposuresProcess
       2975  B9E 0002FEE0 cveMergeMertensRelease
       2976  B9F 0002FEE0 cveMergeRobertsonRelease
       2977  BA0 000282C0 cveMin
       2978  BA1 0002C440 cveMinAreaRect
       2979  BA2 0002C480 cveMinEnclosingCircle
       2980  BA3 0002C4E0 cveMinEnclosingTriangle
       2981  BA4 000282D0 cveMinMaxIdx
       2982  BA5 000282F0 cveMinMaxLoc
       2983  BA6 00028360 cveMixChannels
       2984  BA7 0002C4F0 cveMoments
       2985  BA8 0002C5D0 cveMorphologyEx
       2986  BA9 000324D0 cveMserFeatureDetectorRelease
       2987  BAA 00032500 cveMserGetFeatureDetector
       2988  BAB 00028370 cveMulSpectrums
       2989  BAC 00028380 cveMulTransposed
       2990  BAD 000283C0 cveMultiply
       2991  BAE 00030FE0 cveNamedWindow
       2992  BAF 000283F0 cveNorm
       2993  BB0 00028430 cveNormalize
       2994  BB1 0002A4C0 cveOclDeviceDeviceVersionMajor
       2995  BB2 0002A4D0 cveOclDeviceDeviceVersionMinor
       2996  BB3 0002A4E0 cveOclDeviceDoubleFPConfig
       2997  BB4 0002A4F0 cveOclDeviceDriverVersion
       2998  BB5 0002A580 cveOclDeviceExtensions
       2999  BB6 0002A610 cveOclDeviceGlobalMemSize
       3000  BB7 0002A620 cveOclDeviceHostUnifiedMemory
       3001  BB8 0002A630 cveOclDeviceImage2DMaxHeight
       3002  BB9 0002A640 cveOclDeviceImage2DMaxWidth
       3003  BBA 0002A650 cveOclDeviceLocalMemSize
       3004  BBB 0002A660 cveOclDeviceMaxComputeUnits
       3005  BBC 0002A670 cveOclDeviceMaxMemAllocSize
       3006  BBD 0002A680 cveOclDeviceMaxWorkGroupSize
       3007  BBE 0002A690 cveOclDeviceName
       3008  BBF 0002A580 cveOclDeviceOpenCLVersion
       3009  BC0 0002A720 cveOclDeviceType
       3010  BC1 0002A730 cveOclDeviceVendorName
       3011  BC2 0002A7C0 cveOclDeviceVersion
       3012  BC3 0002A1E0 cveOclFinish
       3013  BC4 0002A2C0 cveOclPlatformInfoDeviceNumber
       3014  BC5 0002A2F0 cveOclPlatformInfoName
       3015  BC6 0002A380 cveOclPlatformInfoVendor
       3016  BC7 0002A410 cveOclPlatformInfoVersion
       3017  BC8 000325E0 cveOrbDetectorCreate
       3018  BC9 000324D0 cveOrbDetectorRelease
       3019  BCA 00060F50 cveOrbFeaturesFinderCreate
       3020  BCB 0002FEE0 cveOrbFeaturesFinderRelease
       3021  BCC 0002A860 cveOutputArrayFixedSize
       3022  BCD 0002A870 cveOutputArrayFixedType
       3023  BCE 00028470 cveOutputArrayFromGpuMat
       3024  BCF 00028500 cveOutputArrayFromMat
       3025  BD0 00028590 cveOutputArrayFromUMat
       3026  BD1 0002A880 cveOutputArrayNeeded
       3027  BD2 00028130 cveOutputArrayRelease
       3028  BD3 00028620 cvePCABackProject
       3029  BD4 00028630 cvePCACompute1
       3030  BD5 00028640 cvePCACompute2
       3031  BD6 00028670 cvePCAProject
       3032  BD7 00028680 cvePSNR
       3033  BD8 00035E60 cvePencilSketch
       3034  BD9 00028690 cvePerspectiveTransform
       3035  BDA 0002C640 cvePhaseCorrelate
       3036  BDB 0002C680 cvePointPolygonTest
       3037  BDC 000286A0 cvePolarToCart
       3038  BDD 0002C6B0 cvePolylines
       3039  BDE 000286B0 cvePow
       3040  BDF 000344A0 cveProjectPoints
       3041  BE0 0002C700 cvePutText
       3042  BE1 0002C760 cvePyrDown
       3043  BE2 0002C790 cvePyrMeanShiftFiltering
       3044  BE3 0002C7F0 cvePyrUp
       3045  BE4 00030620 cveRTreesCreate
       3046  BE5 000307A0 cveRTreesGetActiveVarCount
       3047  BE6 0002FB70 cveRTreesGetCVFolds
       3048  BE7 000307B0 cveRTreesGetCalculateVarImportance
       3049  BE8 000307D0 cveRTreesGetMaxCategories
       3050  BE9 0002FA00 cveRTreesGetMaxDepth
       3051  BEA 000307E0 cveRTreesGetMinSampleCount
       3052  BEB 000307F0 cveRTreesGetRegressionAccuracy
       3053  BEC 00030800 cveRTreesGetTermCriteria
       3054  BED 00030920 cveRTreesGetTruncatePrunedTree
       3055  BEE 0002FA10 cveRTreesGetUse1SERule
       3056  BEF 0002FA20 cveRTreesGetUseSurrogates
       3057  BF0 0002FEE0 cveRTreesRelease
       3058  BF1 00030840 cveRTreesSetActiveVarCount
       3059  BF2 0002FB00 cveRTreesSetCVFolds
       3060  BF3 00030860 cveRTreesSetCalculateVarImportance
       3061  BF4 0002FA30 cveRTreesSetMaxCategories
       3062  BF5 0002FA40 cveRTreesSetMaxDepth
       3063  BF6 0002FA50 cveRTreesSetMinSampleCount
       3064  BF7 00030880 cveRTreesSetRegressionAccuracy
       3065  BF8 000308A0 cveRTreesSetTermCriteria
       3066  BF9 0002FA60 cveRTreesSetTruncatePrunedTree
       3067  BFA 0002FA70 cveRTreesSetUse1SERule
       3068  BFB 000308E0 cveRTreesSetUseSurrogates
       3069  BFC 000286D0 cveRandShuffle
       3070  BFD 00028710 cveRandn
       3071  BFE 00028720 cveRandu
       3072  BFF 00028730 cveRange
       3073  C00 0002C820 cveRectangle
       3074  C01 00028760 cveRedirectError
       3075  C02 00028770 cveReduce
       3076  C03 00028780 cveReleaseImage
       3077  C04 00028790 cveReleaseImageHeader
       3078  C05 000287A0 cveReleaseMat
       3079  C06 000287B0 cveReleaseSparseMat
       3080  C07 0002C8A0 cveRemap
       3081  C08 0002C900 cveRepeat
       3082  C09 000344F0 cveReprojectImageTo3D
       3083  C0A 000287C0 cveResetImageROI
       3084  C0B 000287D0 cveReshape
       3085  C0C 0002C910 cveResize
       3086  C0D 00034500 cveRodrigues
       3087  C0E 0002C950 cveRotatedRectangleIntersection
       3088  C0F 00043770 cveSIFTCreate
       3089  C10 000324D0 cveSIFTRelease
       3090  C11 00043830 cveSURFCreate
       3091  C12 000324D0 cveSURFRelease
       3092  C13 000287E0 cveSVBackSubst
       3093  C14 000287F0 cveSVDecomp
       3094  C15 0002FA20 cveSVMGetC
       3095  C16 000308F0 cveSVMGetCoef0
       3096  C17 00030900 cveSVMGetDegree
       3097  C18 0002FAF0 cveSVMGetGamma
       3098  C19 00030910 cveSVMGetKernelType
       3099  C1A 0002FA10 cveSVMGetNu
       3100  C1B 00030920 cveSVMGetP
       3101  C1C 00030930 cveSVMGetTermCriteria
       3102  C1D 000307D0 cveSVMGetType
       3103  C1E 00030970 cveSVMSetC
       3104  C1F 00030990 cveSVMSetCoef0
       3105  C20 000309B0 cveSVMSetDegree
       3106  C21 000309D0 cveSVMSetGamma
       3107  C22 000309F0 cveSVMSetKernel
       3108  C23 00030A10 cveSVMSetNu
       3109  C24 00030A30 cveSVMSetP
       3110  C25 00030A50 cveSVMSetTermCriteria
       3111  C26 0002FA30 cveSVMSetType
       3112  C27 0002C9A0 cveSampleLine
       3113  C28 00028800 cveScalarCreate
       3114  C29 000274A0 cveScalarRelease
       3115  C2A 0002ED80 cveSearchParamsCreate
       3116  C2B 0002ED20 cveSearchParamsRelease
       3117  C2C 00044180 cveSegmentMotion
       3118  C2D 00028880 cveSet2D
       3119  C2E 000288B0 cveSetData
       3120  C2F 000288C0 cveSetErrMode
       3121  C30 0001F440 cveSetErrStatus
       3122  C31 000288D0 cveSetIdentity
       3123  C32 00028910 cveSetImageCOI
       3124  C33 00028920 cveSetImageROI
       3125  C34 00028940 cveSetNumThreads
       3126  C35 00028950 cveSetReal1D
       3127  C36 00028970 cveSetReal2D
       3128  C37 000289A0 cveSetReal3D
       3129  C38 000289D0 cveSetRealND
       3130  C39 0002A1F0 cveSetUseOpenCL
       3131  C3A 000289F0 cveSetUseOptimized
       3132  C3B 000326A0 cveSimpleBlobDetectorCreate
       3133  C3C 000324D0 cveSimpleBlobDetectorRelease
       3134  C3D 0002C9D0 cveSobel
       3135  C3E 00028A00 cveSolve
       3136  C3F 00028A10 cveSolveCubic
       3137  C40 0002A850 cveSolveLP
       3138  C41 00034520 cveSolvePnP
       3139  C42 00034530 cveSolvePnPRansac
       3140  C43 00028A20 cveSolvePoly
       3141  C44 00028A30 cveSplit
       3142  C45 00028A40 cveSqrt
       3143  C46 00043CE0 cveStarDetectorCreate
       3144  C47 000324D0 cveStarDetectorRelease
       3145  C48 00034590 cveStereoCalibrate
       3146  C49 00034600 cveStereoRectify
       3147  C4A 000346D0 cveStereoRectifyUncalibrated
       3148  C4B 00028A50 cveStringCreate
       3149  C4C 00028AD0 cveStringCreateFromStr
       3150  C4D 00028B80 cveStringGetCStr
       3151  C4E 00013A50 cveStringGetLength
       3152  C4F 00028BB0 cveStringRelease
       3153  C50 00035EA0 cveStylization
       3154  C51 0002CA10 cveSubdiv2DCreate
       3155  C52 0002CAB0 cveSubdiv2DFindNearest
       3156  C53 0002CB10 cveSubdiv2DGetTriangleList
       3157  C54 0002CB20 cveSubdiv2DGetVoronoiFacetList
       3158  C55 0002CB40 cveSubdiv2DInsertMulti
       3159  C56 0002CB50 cveSubdiv2DInsertSingle
       3160  C57 0002CB80 cveSubdiv2DLocate
       3161  C58 0002CBD0 cveSubdiv2DRelease
       3162  C59 00028BE0 cveSubtract
       3163  C5A 00028C00 cveSum
       3164  C5B 00035ED0 cveTextureFlattening
       3165  C5C 0002CC00 cveThreshold
       3166  C5D 00028C50 cveTrace
       3167  C5E 000306C0 cveTrainDataCreate
       3168  C5F 0002FEE0 cveTrainDataRelease
       3169  C60 00028CA0 cveTransform
       3170  C61 00028CB0 cveTranspose
       3171  C62 00034710 cveTriangulatePoints
       3172  C63 0002A890 cveUMatConvertTo
       3173  C64 0002A8C0 cveUMatCopyTo
       3174  C65 0002A970 cveUMatCreate
       3175  C66 0002AA30 cveUMatCreateData
       3176  C67 0002AA90 cveUMatCreateFromROI
       3177  C68 00029210 cveUMatDepth
       3178  C69 0002AB30 cveUMatGetElementSize
       3179  C6A 0002AB50 cveUMatGetMat
       3180  C6B 0002AC10 cveUMatGetSize
       3181  C6C 0002A130 cveUMatIsContinuous
       3182  C6D 0002ADC0 cveUMatIsEmpty
       3183  C6E 0002AE10 cveUMatIsSubmatrix
       3184  C6F 0002A190 cveUMatNumberOfChannels
       3185  C70 0002AC20 cveUMatRelease
       3186  C71 0002AC50 cveUMatReshape
       3187  C72 0002AD50 cveUMatSetTo
       3188  C73 0002AD70 cveUMatUseCustomAllocator
       3189  C74 0002CC30 cveUndistort
       3190  C75 0002CC60 cveUndistortPoints
       3191  C76 000441B0 cveUpdateMotionHistory
       3192  C77 0002A200 cveUseOpenCL
       3193  C78 00028CC0 cveUseOptimized
       3194  C79 00028CD0 cveVConcat
       3195  C7A 00030FF0 cveVideoCaptureCreateFromDevice
       3196  C7B 00031070 cveVideoCaptureCreateFromFile
       3197  C7C 000310F0 cveVideoCaptureGet
       3198  C7D 00031110 cveVideoCaptureGrab
       3199  C7E 00031120 cveVideoCaptureRead
       3200  C7F 0002FEE0 cveVideoCaptureRelease
       3201  C80 00031140 cveVideoCaptureRetrieve
       3202  C81 00031160 cveVideoCaptureSet
       3203  C82 00031180 cveVideoWriterCreate
       3204  C83 00031220 cveVideoWriterFourcc
       3205  C84 0002FEE0 cveVideoWriterRelease
       3206  C85 00031230 cveVideoWriterWrite
       3207  C86 00031240 cveWaitKey
       3208  C87 0002CCA0 cveWarpAffine
       3209  C88 0002CD10 cveWarpPerspective
       3210  C89 0002CD80 cveWatershed
       3211  C8A 00032740 drawKeypoints
       3212  C8B 00032790 drawMatchedFeatures
       3213  C8C 0002A090 emguMatAllocatorCreate
       3214  C8D 00017900 eulerToQuaternions
       3215  C8E 00034720 getHomographyMatrixFromMatchedFeatures
       3216  C8F 00028F30 gpuMatConvertTo
       3217  C90 00028F70 gpuMatCopyTo
       3218  C91 00028FB0 gpuMatCreate
       3219  C92 00028FD0 gpuMatCreateContinuous
       3220  C93 000290A0 gpuMatCreateDefault
       3221  C94 00029150 gpuMatCreateFromInputArray
       3222  C95 000294E0 gpuMatDownload
       3223  C96 0002A190 gpuMatGetChannels
       3224  C97 00029210 gpuMatGetDepth
       3225  C98 00029220 gpuMatGetRegion
       3226  C99 00029310 gpuMatGetSize
       3227  C9A 00029320 gpuMatGetSubRect
       3228  C9B 000293C0 gpuMatGetType
       3229  C9C 0002A130 gpuMatIsContinuous
       3230  C9D 00029630 gpuMatIsEmpty
       3231  C9E 000293D0 gpuMatRelease
       3232  C9F 00029400 gpuMatReshape
       3233  CA0 00029470 gpuMatSetTo
       3234  CA1 000294E0 gpuMatUpload
       3235  CA2 00061D30 leptCreatePixFromMat
       3236  CA3 005E5C90 log2
       3237  CA4 0002A210 oclDeviceCreate
       3238  CA5 0002A280 oclDeviceRelease
       3239  CA6 0002A2B0 oclGetPlatformsInfo
       3240  CA7 0002A2C0 oclPlatformInfoDeviceNumber
       3241  CA8 0002A2D0 oclPlatformInfoGetDevice
       3242  CA9 0002A2F0 oclPlatformInfoGetName
       3243  CAA 0002A380 oclPlatformInfoGetVender
       3244  CAB 0002A410 oclPlatformInfoGetVersion
       3245  CAC 0002A4A0 oclPlatformInfoRelease
       3246  CAD 00017440 pointToPlane3DSignedDistance
       3247  CAE 00017A60 quaternionsMultiply
       3248  CAF 00017BC0 quaternionsRenorm
       3249  CB0 00017C40 quaternionsRotatePoint
       3250  CB1 00017DC0 quaternionsRotatePoints
       3251  CB2 000182C0 quaternionsSlerp
       3252  CB3 000182E0 quaternionsToAxisAngle
       3253  CB4 000183A0 quaternionsToEuler
       3254  CB5 000184A0 quaternionsToRotationMatrix
       3255  CB6 00017490 setEdge3D
       3256  CB7 000174D0 setPlane3D
       3257  CB8 00029530 streamCreate
       3258  CB9 00028E90 streamQueryIfComplete
       3259  CBA 000295A0 streamRelease
       3260  CBB 00029620 streamWaitForCompletion
       3261  CBC 000294F0 targetArchsBuildWith
       3262  CBD 00029500 targetArchsHas
       3263  CBE 000294F0 targetArchsHasBin
       3264  CBF 00029500 targetArchsHasEqualOrGreater
       3265  CC0 000294F0 targetArchsHasEqualOrGreaterBin
       3266  CC1 000294F0 targetArchsHasEqualOrGreaterPtx
       3267  CC2 000294F0 targetArchsHasEqualOrLessPtx
       3268  CC3 000294F0 targetArchsHasPtx
       3269  CC4 002DA250 tbbTaskSchedulerInit
       3270  CC5 000B8930 tbbTaskSchedulerRelease
       3271  CC6 000162D0 testDrawLine
       3272  CC7 000188D0 tiffTileRowSize
       3273  CC8 000188E0 tiffTileSize
       3274  CC9 000188F0 tiffWriteGeoTag
       3275  CCA 00018980 tiffWriteImage
       3276  CCB 00018AA0 tiffWriteImageInfo
       3277  CCC 00018B30 tiffWriteImageSize
       3278  CCD 00018B60 tiffWriteTile
       3279  CCE 00018CC0 tiffWriteTileInfo
       3280  CCF 00018CF0 tiffWriterClose
       3281  CD0 00018D20 tiffWriterOpen
       3282  CD1 00032B30 voteForSizeAndOrientation
       3283  CD2 00026D20 zlib_compress2
       3284  CD3 00026E50 zlib_compress_bound
       3285  CD4 00026E60 zlib_uncompress

  Summary

      30F000 .data
      28F000 .rdata
       48000 .reloc
        1000 .rsrc
      782000 .text
        3000 _RDATA
